GAS LISTING /tmp/ccVDQtdn.s 			page 1


   1              		.file	"buffer.cpp"
   2              		.option pic
   3              		.option norelax
   4              		.text
   5              	.Ltext0:
   6              		.align	2
   7              		.globl	_ZN6BufferC2Ei
   9              	_ZN6BufferC2Ei:
  10              	.LFB36:
  11              		.file 1 "src/buffer.cpp"
   1:src/buffer.cpp **** #include "../h/buffer.hpp"
   2:src/buffer.cpp **** 
   3:src/buffer.cpp **** Buffer::Buffer(int _cap) : cap(_cap + 1), head(0), tail(0) {
  12              		.loc 1 3 1
  13              		.cfi_startproc
  14              	.LVL0:
  15 0000 130101FE 		addi	sp,sp,-32
  16              		.cfi_def_cfa_offset 32
  17 0004 233C1100 		sd	ra,24(sp)
  18 0008 23388100 		sd	s0,16(sp)
  19 000c 23349100 		sd	s1,8(sp)
  20 0010 23302101 		sd	s2,0(sp)
  21              		.cfi_offset 1, -8
  22              		.cfi_offset 8, -16
  23              		.cfi_offset 9, -24
  24              		.cfi_offset 18, -32
  25 0014 13040102 		addi	s0,sp,32
  26              		.cfi_def_cfa 8, 0
  27 0018 93040500 		mv	s1,a0
  28 001c 13890500 		mv	s2,a1
  29              	.LBB2:
  30              		.loc 1 3 37 is_stmt 0
  31 0020 9B871500 		addiw	a5,a1,1
  32 0024 1B850700 		sext.w	a0,a5
  33              	.LVL1:
  34              		.loc 1 3 58
  35 0028 23A0F400 		sw	a5,0(s1)
  36 002c 23A80400 		sw	zero,16(s1)
  37 0030 23AA0400 		sw	zero,20(s1)
   4:src/buffer.cpp ****     buffer = (int *)mem_alloc(sizeof(int) * cap);
  38              		.loc 1 4 5 is_stmt 1
  39              		.loc 1 4 30 is_stmt 0
  40 0034 13152500 		slli	a0,a0,2
  41 0038 97000000 		call	_Z9mem_allocm@plt
  41      E7800000 
  42              	.LVL2:
  43              		.loc 1 4 12
  44 0040 23B4A400 		sd	a0,8(s1)
   5:src/buffer.cpp ****     sem_open(&itemAvailable, 0);
  45              		.loc 1 5 5 is_stmt 1
  46              		.loc 1 5 13 is_stmt 0
  47 0044 93050000 		li	a1,0
  48 0048 13850402 		addi	a0,s1,32
  49 004c 97000000 		call	_Z8sem_openPP3SCBj@plt
  49      E7800000 
  50              	.LVL3:
   6:src/buffer.cpp ****     sem_open(&spaceAvailable, _cap);
GAS LISTING /tmp/ccVDQtdn.s 			page 2


  51              		.loc 1 6 5 is_stmt 1
  52              		.loc 1 6 13 is_stmt 0
  53 0054 93050900 		mv	a1,s2
  54 0058 13858401 		addi	a0,s1,24
  55 005c 97000000 		call	_Z8sem_openPP3SCBj@plt
  55      E7800000 
  56              	.LVL4:
   7:src/buffer.cpp ****     sem_open(&mutexHead, 1);
  57              		.loc 1 7 5 is_stmt 1
  58              		.loc 1 7 13 is_stmt 0
  59 0064 93051000 		li	a1,1
  60 0068 13858402 		addi	a0,s1,40
  61 006c 97000000 		call	_Z8sem_openPP3SCBj@plt
  61      E7800000 
  62              	.LVL5:
   8:src/buffer.cpp ****     sem_open(&mutexTail, 1);
  63              		.loc 1 8 5 is_stmt 1
  64              		.loc 1 8 13 is_stmt 0
  65 0074 93051000 		li	a1,1
  66 0078 13850403 		addi	a0,s1,48
  67 007c 97000000 		call	_Z8sem_openPP3SCBj@plt
  67      E7800000 
  68              	.LVL6:
  69              	.LBE2:
   9:src/buffer.cpp **** }
  70              		.loc 1 9 1
  71 0084 83308101 		ld	ra,24(sp)
  72              		.cfi_restore 1
  73 0088 03340101 		ld	s0,16(sp)
  74              		.cfi_restore 8
  75              		.cfi_def_cfa 2, 32
  76 008c 83348100 		ld	s1,8(sp)
  77              		.cfi_restore 9
  78              	.LVL7:
  79 0090 03390100 		ld	s2,0(sp)
  80              		.cfi_restore 18
  81 0094 13010102 		addi	sp,sp,32
  82              		.cfi_def_cfa_offset 0
  83 0098 67800000 		jr	ra
  84              		.cfi_endproc
  85              	.LFE36:
  87              		.globl	_ZN6BufferC1Ei
  88              		.set	_ZN6BufferC1Ei,_ZN6BufferC2Ei
  89              		.align	2
  90              		.globl	_ZN6Buffer3putEi
  92              	_ZN6Buffer3putEi:
  93              	.LFB41:
  10:src/buffer.cpp **** 
  11:src/buffer.cpp **** Buffer::~Buffer() {
  12:src/buffer.cpp ****     putc('\n');
  13:src/buffer.cpp ****     printString("Buffer deleted!\n");
  14:src/buffer.cpp ****     while (getCnt() > 0) {
  15:src/buffer.cpp ****         char ch = buffer[head];
  16:src/buffer.cpp ****         putc(ch);
  17:src/buffer.cpp ****         head = (head + 1) % cap;
  18:src/buffer.cpp ****     }
  19:src/buffer.cpp ****     putc('!');
GAS LISTING /tmp/ccVDQtdn.s 			page 3


  20:src/buffer.cpp ****     putc('\n');
  21:src/buffer.cpp **** 
  22:src/buffer.cpp ****     mem_free(buffer);
  23:src/buffer.cpp ****     sem_close(itemAvailable);
  24:src/buffer.cpp ****     sem_close(spaceAvailable);
  25:src/buffer.cpp ****     sem_close(mutexTail);
  26:src/buffer.cpp ****     sem_close(mutexHead);
  27:src/buffer.cpp **** }
  28:src/buffer.cpp **** 
  29:src/buffer.cpp **** void Buffer::put(int val) {
  94              		.loc 1 29 27 is_stmt 1
  95              		.cfi_startproc
  96              	.LVL8:
  97 009c 130101FE 		addi	sp,sp,-32
  98              		.cfi_def_cfa_offset 32
  99 00a0 233C1100 		sd	ra,24(sp)
 100 00a4 23388100 		sd	s0,16(sp)
 101 00a8 23349100 		sd	s1,8(sp)
 102 00ac 23302101 		sd	s2,0(sp)
 103              		.cfi_offset 1, -8
 104              		.cfi_offset 8, -16
 105              		.cfi_offset 9, -24
 106              		.cfi_offset 18, -32
 107 00b0 13040102 		addi	s0,sp,32
 108              		.cfi_def_cfa 8, 0
 109 00b4 93040500 		mv	s1,a0
 110 00b8 13890500 		mv	s2,a1
  30:src/buffer.cpp ****     sem_wait(spaceAvailable);
 111              		.loc 1 30 5
 112              		.loc 1 30 13 is_stmt 0
 113 00bc 03358501 		ld	a0,24(a0)
 114              	.LVL9:
 115 00c0 97000000 		call	_Z8sem_waitP3SCB@plt
 115      E7800000 
 116              	.LVL10:
  31:src/buffer.cpp **** 
  32:src/buffer.cpp ****     sem_wait(mutexTail);
 117              		.loc 1 32 5 is_stmt 1
 118              		.loc 1 32 13 is_stmt 0
 119 00c8 03B50403 		ld	a0,48(s1)
 120 00cc 97000000 		call	_Z8sem_waitP3SCB@plt
 120      E7800000 
 121              	.LVL11:
  33:src/buffer.cpp ****     buffer[tail] = val;
 122              		.loc 1 33 5 is_stmt 1
 123 00d4 83B78400 		ld	a5,8(s1)
 124              		.loc 1 33 12 is_stmt 0
 125 00d8 03A74401 		lw	a4,20(s1)
 126              		.loc 1 33 16
 127 00dc 13172700 		slli	a4,a4,2
 128 00e0 B387E700 		add	a5,a5,a4
 129              		.loc 1 33 18
 130 00e4 23A02701 		sw	s2,0(a5)
  34:src/buffer.cpp ****     tail = (tail + 1) % cap;
 131              		.loc 1 34 5 is_stmt 1
 132              		.loc 1 34 13 is_stmt 0
 133 00e8 83A74401 		lw	a5,20(s1)
GAS LISTING /tmp/ccVDQtdn.s 			page 4


 134              		.loc 1 34 18
 135 00ec 9B871700 		addiw	a5,a5,1
 136              		.loc 1 34 25
 137 00f0 03A70400 		lw	a4,0(s1)
 138              		.loc 1 34 23
 139 00f4 BBE7E702 		remw	a5,a5,a4
 140              		.loc 1 34 10
 141 00f8 23AAF400 		sw	a5,20(s1)
  35:src/buffer.cpp ****     sem_signal(mutexTail);
 142              		.loc 1 35 5 is_stmt 1
 143              		.loc 1 35 15 is_stmt 0
 144 00fc 03B50403 		ld	a0,48(s1)
 145 0100 97000000 		call	_Z10sem_signalP3SCB@plt
 145      E7800000 
 146              	.LVL12:
  36:src/buffer.cpp **** 
  37:src/buffer.cpp ****     sem_signal(itemAvailable);
 147              		.loc 1 37 5 is_stmt 1
 148              		.loc 1 37 15 is_stmt 0
 149 0108 03B50402 		ld	a0,32(s1)
 150 010c 97000000 		call	_Z10sem_signalP3SCB@plt
 150      E7800000 
 151              	.LVL13:
  38:src/buffer.cpp **** 
  39:src/buffer.cpp **** }
 152              		.loc 1 39 1
 153 0114 83308101 		ld	ra,24(sp)
 154              		.cfi_restore 1
 155 0118 03340101 		ld	s0,16(sp)
 156              		.cfi_restore 8
 157              		.cfi_def_cfa 2, 32
 158 011c 83348100 		ld	s1,8(sp)
 159              		.cfi_restore 9
 160              	.LVL14:
 161 0120 03390100 		ld	s2,0(sp)
 162              		.cfi_restore 18
 163 0124 13010102 		addi	sp,sp,32
 164              		.cfi_def_cfa_offset 0
 165 0128 67800000 		jr	ra
 166              		.cfi_endproc
 167              	.LFE41:
 169              		.align	2
 170              		.globl	_ZN6Buffer3getEv
 172              	_ZN6Buffer3getEv:
 173              	.LFB42:
  40:src/buffer.cpp **** 
  41:src/buffer.cpp **** int Buffer::get() {
 174              		.loc 1 41 19 is_stmt 1
 175              		.cfi_startproc
 176              	.LVL15:
 177 012c 130101FE 		addi	sp,sp,-32
 178              		.cfi_def_cfa_offset 32
 179 0130 233C1100 		sd	ra,24(sp)
 180 0134 23388100 		sd	s0,16(sp)
 181 0138 23349100 		sd	s1,8(sp)
 182 013c 23302101 		sd	s2,0(sp)
 183              		.cfi_offset 1, -8
GAS LISTING /tmp/ccVDQtdn.s 			page 5


 184              		.cfi_offset 8, -16
 185              		.cfi_offset 9, -24
 186              		.cfi_offset 18, -32
 187 0140 13040102 		addi	s0,sp,32
 188              		.cfi_def_cfa 8, 0
 189 0144 93040500 		mv	s1,a0
  42:src/buffer.cpp ****     sem_wait(itemAvailable);
 190              		.loc 1 42 5
 191              		.loc 1 42 13 is_stmt 0
 192 0148 03350502 		ld	a0,32(a0)
 193              	.LVL16:
 194 014c 97000000 		call	_Z8sem_waitP3SCB@plt
 194      E7800000 
 195              	.LVL17:
  43:src/buffer.cpp **** 
  44:src/buffer.cpp ****     sem_wait(mutexHead);
 196              		.loc 1 44 5 is_stmt 1
 197              		.loc 1 44 13 is_stmt 0
 198 0154 03B58402 		ld	a0,40(s1)
 199 0158 97000000 		call	_Z8sem_waitP3SCB@plt
 199      E7800000 
 200              	.LVL18:
  45:src/buffer.cpp **** 
  46:src/buffer.cpp ****     int ret = buffer[head];
 201              		.loc 1 46 5 is_stmt 1
 202              		.loc 1 46 15 is_stmt 0
 203 0160 03B78400 		ld	a4,8(s1)
 204              		.loc 1 46 22
 205 0164 83A70401 		lw	a5,16(s1)
 206              		.loc 1 46 26
 207 0168 93962700 		slli	a3,a5,2
 208 016c 3307D700 		add	a4,a4,a3
 209              		.loc 1 46 9
 210 0170 03290700 		lw	s2,0(a4)
 211              	.LVL19:
  47:src/buffer.cpp ****     head = (head + 1) % cap;
 212              		.loc 1 47 5 is_stmt 1
 213              		.loc 1 47 18 is_stmt 0
 214 0174 9B871700 		addiw	a5,a5,1
 215              		.loc 1 47 25
 216 0178 03A70400 		lw	a4,0(s1)
 217              		.loc 1 47 23
 218 017c BBE7E702 		remw	a5,a5,a4
 219              		.loc 1 47 10
 220 0180 23A8F400 		sw	a5,16(s1)
  48:src/buffer.cpp ****     sem_signal(mutexHead);
 221              		.loc 1 48 5 is_stmt 1
 222              		.loc 1 48 15 is_stmt 0
 223 0184 03B58402 		ld	a0,40(s1)
 224 0188 97000000 		call	_Z10sem_signalP3SCB@plt
 224      E7800000 
 225              	.LVL20:
  49:src/buffer.cpp **** 
  50:src/buffer.cpp ****     sem_signal(spaceAvailable);
 226              		.loc 1 50 5 is_stmt 1
 227              		.loc 1 50 15 is_stmt 0
 228 0190 03B58401 		ld	a0,24(s1)
GAS LISTING /tmp/ccVDQtdn.s 			page 6


 229 0194 97000000 		call	_Z10sem_signalP3SCB@plt
 229      E7800000 
 230              	.LVL21:
  51:src/buffer.cpp **** 
  52:src/buffer.cpp ****     return ret;
 231              		.loc 1 52 5 is_stmt 1
  53:src/buffer.cpp **** }
 232              		.loc 1 53 1 is_stmt 0
 233 019c 13050900 		mv	a0,s2
 234 01a0 83308101 		ld	ra,24(sp)
 235              		.cfi_restore 1
 236 01a4 03340101 		ld	s0,16(sp)
 237              		.cfi_restore 8
 238              		.cfi_def_cfa 2, 32
 239 01a8 83348100 		ld	s1,8(sp)
 240              		.cfi_restore 9
 241              	.LVL22:
 242 01ac 03390100 		ld	s2,0(sp)
 243              		.cfi_restore 18
 244              	.LVL23:
 245 01b0 13010102 		addi	sp,sp,32
 246              		.cfi_def_cfa_offset 0
 247 01b4 67800000 		jr	ra
 248              		.cfi_endproc
 249              	.LFE42:
 251              		.align	2
 252              		.globl	_ZN6Buffer6getCntEv
 254              	_ZN6Buffer6getCntEv:
 255              	.LFB43:
  54:src/buffer.cpp **** 
  55:src/buffer.cpp **** int Buffer::getCnt() {
 256              		.loc 1 55 22 is_stmt 1
 257              		.cfi_startproc
 258              	.LVL24:
 259 01b8 130101FE 		addi	sp,sp,-32
 260              		.cfi_def_cfa_offset 32
 261 01bc 233C1100 		sd	ra,24(sp)
 262 01c0 23388100 		sd	s0,16(sp)
 263 01c4 23349100 		sd	s1,8(sp)
 264 01c8 23302101 		sd	s2,0(sp)
 265              		.cfi_offset 1, -8
 266              		.cfi_offset 8, -16
 267              		.cfi_offset 9, -24
 268              		.cfi_offset 18, -32
 269 01cc 13040102 		addi	s0,sp,32
 270              		.cfi_def_cfa 8, 0
 271 01d0 93040500 		mv	s1,a0
  56:src/buffer.cpp ****     int ret;
 272              		.loc 1 56 5
  57:src/buffer.cpp **** 
  58:src/buffer.cpp ****     sem_wait(mutexHead);
 273              		.loc 1 58 5
 274              		.loc 1 58 13 is_stmt 0
 275 01d4 03358502 		ld	a0,40(a0)
 276              	.LVL25:
 277 01d8 97000000 		call	_Z8sem_waitP3SCB@plt
 277      E7800000 
GAS LISTING /tmp/ccVDQtdn.s 			page 7


 278              	.LVL26:
  59:src/buffer.cpp ****     sem_wait(mutexTail);
 279              		.loc 1 59 5 is_stmt 1
 280              		.loc 1 59 13 is_stmt 0
 281 01e0 03B50403 		ld	a0,48(s1)
 282 01e4 97000000 		call	_Z8sem_waitP3SCB@plt
 282      E7800000 
 283              	.LVL27:
  60:src/buffer.cpp **** 
  61:src/buffer.cpp ****     if (tail >= head) {
 284              		.loc 1 61 5 is_stmt 1
 285              		.loc 1 61 9 is_stmt 0
 286 01ec 83A74401 		lw	a5,20(s1)
 287              		.loc 1 61 17
 288 01f0 03A90401 		lw	s2,16(s1)
 289              		.loc 1 61 5
 290 01f4 63CE2703 		blt	a5,s2,.L8
  62:src/buffer.cpp ****         ret = tail - head;
 291              		.loc 1 62 9 is_stmt 1
 292              		.loc 1 62 13 is_stmt 0
 293 01f8 3B892741 		subw	s2,a5,s2
 294              	.LVL28:
 295              	.L9:
  63:src/buffer.cpp ****     } else {
  64:src/buffer.cpp ****         ret = cap - head + tail;
  65:src/buffer.cpp ****     }
  66:src/buffer.cpp **** 
  67:src/buffer.cpp ****     sem_signal(mutexTail);
 296              		.loc 1 67 5 is_stmt 1
 297              		.loc 1 67 15 is_stmt 0
 298 01fc 03B50403 		ld	a0,48(s1)
 299 0200 97000000 		call	_Z10sem_signalP3SCB@plt
 299      E7800000 
 300              	.LVL29:
  68:src/buffer.cpp ****     sem_signal(mutexHead);
 301              		.loc 1 68 5 is_stmt 1
 302              		.loc 1 68 15 is_stmt 0
 303 0208 03B58402 		ld	a0,40(s1)
 304 020c 97000000 		call	_Z10sem_signalP3SCB@plt
 304      E7800000 
 305              	.LVL30:
  69:src/buffer.cpp **** 
  70:src/buffer.cpp ****     return ret;
 306              		.loc 1 70 5 is_stmt 1
  71:src/buffer.cpp **** }
 307              		.loc 1 71 1 is_stmt 0
 308 0214 13050900 		mv	a0,s2
 309 0218 83308101 		ld	ra,24(sp)
 310              		.cfi_remember_state
 311              		.cfi_restore 1
 312 021c 03340101 		ld	s0,16(sp)
 313              		.cfi_restore 8
 314              		.cfi_def_cfa 2, 32
 315 0220 83348100 		ld	s1,8(sp)
 316              		.cfi_restore 9
 317              	.LVL31:
 318 0224 03390100 		ld	s2,0(sp)
GAS LISTING /tmp/ccVDQtdn.s 			page 8


 319              		.cfi_restore 18
 320              	.LVL32:
 321 0228 13010102 		addi	sp,sp,32
 322              		.cfi_def_cfa_offset 0
 323 022c 67800000 		jr	ra
 324              	.LVL33:
 325              	.L8:
 326              		.cfi_restore_state
  64:src/buffer.cpp ****     }
 327              		.loc 1 64 9 is_stmt 1
  64:src/buffer.cpp ****     }
 328              		.loc 1 64 15 is_stmt 0
 329 0230 03A70400 		lw	a4,0(s1)
  64:src/buffer.cpp ****     }
 330              		.loc 1 64 19
 331 0234 3B092741 		subw	s2,a4,s2
  64:src/buffer.cpp ****     }
 332              		.loc 1 64 13
 333 0238 3B09F900 		addw	s2,s2,a5
 334 023c 6FF01FFC 		j	.L9
 335              		.cfi_endproc
 336              	.LFE43:
 338              		.section	.rodata.str1.8,"aMS",@progbits,1
 339              		.align	3
 340              	.LC0:
 341 0000 42756666 		.string	"Buffer deleted!\n"
 341      65722064 
 341      656C6574 
 341      6564210A 
 341      00
 342              		.text
 343              		.align	2
 344              		.globl	_ZN6BufferD2Ev
 346              	_ZN6BufferD2Ev:
 347              	.LFB39:
  11:src/buffer.cpp ****     putc('\n');
 348              		.loc 1 11 1 is_stmt 1
 349              		.cfi_startproc
 350              		.cfi_personality 0x9b,DW.ref.__gxx_personality_v0
 351              		.cfi_lsda 0x1b,.LLSDA39
 352              	.LVL34:
 353 0240 130101FE 		addi	sp,sp,-32
 354              		.cfi_def_cfa_offset 32
 355 0244 233C1100 		sd	ra,24(sp)
 356 0248 23388100 		sd	s0,16(sp)
 357 024c 23349100 		sd	s1,8(sp)
 358              		.cfi_offset 1, -8
 359              		.cfi_offset 8, -16
 360              		.cfi_offset 9, -24
 361 0250 13040102 		addi	s0,sp,32
 362              		.cfi_def_cfa 8, 0
 363 0254 93040500 		mv	s1,a0
 364              	.LBB3:
  12:src/buffer.cpp ****     printString("Buffer deleted!\n");
 365              		.loc 1 12 5
  12:src/buffer.cpp ****     printString("Buffer deleted!\n");
 366              		.loc 1 12 9 is_stmt 0
GAS LISTING /tmp/ccVDQtdn.s 			page 9


 367 0258 1305A000 		li	a0,10
 368              	.LVL35:
 369 025c 97000000 		call	_Z4putcc@plt
 369      E7800000 
 370              	.LVL36:
  13:src/buffer.cpp ****     while (getCnt() > 0) {
 371              		.loc 1 13 5 is_stmt 1
  13:src/buffer.cpp ****     while (getCnt() > 0) {
 372              		.loc 1 13 16 is_stmt 0
 373 0264 17050000 		lla	a0,.LC0
 373      13050500 
 374 026c 97000000 		call	_Z11printStringPKc@plt
 374      E7800000 
 375              	.LVL37:
 376              	.L13:
  14:src/buffer.cpp ****         char ch = buffer[head];
 377              		.loc 1 14 5 is_stmt 1
  14:src/buffer.cpp ****         char ch = buffer[head];
 378              		.loc 1 14 21
  14:src/buffer.cpp ****         char ch = buffer[head];
 379              		.loc 1 14 18 is_stmt 0
 380 0274 13850400 		mv	a0,s1
 381 0278 97000000 		call	_ZN6Buffer6getCntEv
 381      E7800000 
 382              	.LVL38:
  14:src/buffer.cpp ****         char ch = buffer[head];
 383              		.loc 1 14 21
 384 0280 635CA002 		blez	a0,.L12
 385              	.LBB4:
  15:src/buffer.cpp ****         putc(ch);
 386              		.loc 1 15 9 is_stmt 1
  15:src/buffer.cpp ****         putc(ch);
 387              		.loc 1 15 19 is_stmt 0
 388 0284 83B78400 		ld	a5,8(s1)
  15:src/buffer.cpp ****         putc(ch);
 389              		.loc 1 15 26
 390 0288 03A70401 		lw	a4,16(s1)
  15:src/buffer.cpp ****         putc(ch);
 391              		.loc 1 15 30
 392 028c 13172700 		slli	a4,a4,2
 393 0290 B387E700 		add	a5,a5,a4
 394              	.LVL39:
  16:src/buffer.cpp ****         head = (head + 1) % cap;
 395              		.loc 1 16 9 is_stmt 1
  16:src/buffer.cpp ****         head = (head + 1) % cap;
 396              		.loc 1 16 13 is_stmt 0
 397 0294 03C50700 		lbu	a0,0(a5)
 398 0298 97000000 		call	_Z4putcc@plt
 398      E7800000 
 399              	.LVL40:
  17:src/buffer.cpp ****     }
 400              		.loc 1 17 9 is_stmt 1
  17:src/buffer.cpp ****     }
 401              		.loc 1 17 17 is_stmt 0
 402 02a0 83A70401 		lw	a5,16(s1)
  17:src/buffer.cpp ****     }
 403              		.loc 1 17 22
GAS LISTING /tmp/ccVDQtdn.s 			page 10


 404 02a4 9B871700 		addiw	a5,a5,1
  17:src/buffer.cpp ****     }
 405              		.loc 1 17 29
 406 02a8 03A70400 		lw	a4,0(s1)
  17:src/buffer.cpp ****     }
 407              		.loc 1 17 27
 408 02ac BBE7E702 		remw	a5,a5,a4
  17:src/buffer.cpp ****     }
 409              		.loc 1 17 14
 410 02b0 23A8F400 		sw	a5,16(s1)
 411              	.LBE4:
  14:src/buffer.cpp ****         char ch = buffer[head];
 412              		.loc 1 14 5
 413 02b4 6FF01FFC 		j	.L13
 414              	.L12:
  19:src/buffer.cpp ****     putc('\n');
 415              		.loc 1 19 5 is_stmt 1
  19:src/buffer.cpp ****     putc('\n');
 416              		.loc 1 19 9 is_stmt 0
 417 02b8 13051002 		li	a0,33
 418 02bc 97000000 		call	_Z4putcc@plt
 418      E7800000 
 419              	.LVL41:
  20:src/buffer.cpp **** 
 420              		.loc 1 20 5 is_stmt 1
  20:src/buffer.cpp **** 
 421              		.loc 1 20 9 is_stmt 0
 422 02c4 1305A000 		li	a0,10
 423 02c8 97000000 		call	_Z4putcc@plt
 423      E7800000 
 424              	.LVL42:
  22:src/buffer.cpp ****     sem_close(itemAvailable);
 425              		.loc 1 22 5 is_stmt 1
  22:src/buffer.cpp ****     sem_close(itemAvailable);
 426              		.loc 1 22 13 is_stmt 0
 427 02d0 03B58400 		ld	a0,8(s1)
 428 02d4 97000000 		call	_Z8mem_freePv@plt
 428      E7800000 
 429              	.LVL43:
  23:src/buffer.cpp ****     sem_close(spaceAvailable);
 430              		.loc 1 23 5 is_stmt 1
  23:src/buffer.cpp ****     sem_close(spaceAvailable);
 431              		.loc 1 23 14 is_stmt 0
 432 02dc 03B50402 		ld	a0,32(s1)
 433 02e0 97000000 		call	_Z9sem_closeP3SCB@plt
 433      E7800000 
 434              	.LVL44:
  24:src/buffer.cpp ****     sem_close(mutexTail);
 435              		.loc 1 24 5 is_stmt 1
  24:src/buffer.cpp ****     sem_close(mutexTail);
 436              		.loc 1 24 14 is_stmt 0
 437 02e8 03B58401 		ld	a0,24(s1)
 438 02ec 97000000 		call	_Z9sem_closeP3SCB@plt
 438      E7800000 
 439              	.LVL45:
  25:src/buffer.cpp ****     sem_close(mutexHead);
 440              		.loc 1 25 5 is_stmt 1
GAS LISTING /tmp/ccVDQtdn.s 			page 11


  25:src/buffer.cpp ****     sem_close(mutexHead);
 441              		.loc 1 25 14 is_stmt 0
 442 02f4 03B50403 		ld	a0,48(s1)
 443 02f8 97000000 		call	_Z9sem_closeP3SCB@plt
 443      E7800000 
 444              	.LVL46:
  26:src/buffer.cpp **** }
 445              		.loc 1 26 5 is_stmt 1
  26:src/buffer.cpp **** }
 446              		.loc 1 26 14 is_stmt 0
 447 0300 03B58402 		ld	a0,40(s1)
 448 0304 97000000 		call	_Z9sem_closeP3SCB@plt
 448      E7800000 
 449              	.LVL47:
 450              	.LBE3:
  27:src/buffer.cpp **** 
 451              		.loc 1 27 1
 452 030c 83308101 		ld	ra,24(sp)
 453              		.cfi_restore 1
 454 0310 03340101 		ld	s0,16(sp)
 455              		.cfi_restore 8
 456              		.cfi_def_cfa 2, 32
 457 0314 83348100 		ld	s1,8(sp)
 458              		.cfi_restore 9
 459              	.LVL48:
 460 0318 13010102 		addi	sp,sp,32
 461              		.cfi_def_cfa_offset 0
 462 031c 67800000 		jr	ra
 463              		.cfi_endproc
 464              	.LFE39:
 465              		.globl	__gxx_personality_v0
 466              		.section	.gcc_except_table,"a",@progbits
 467              	.LLSDA39:
 468 0000 FF       		.byte	0xff
 469 0001 FF       		.byte	0xff
 470 0002 03       		.byte	0x3
 471 0003 00       		.byte	0
 472              		.text
 474              		.globl	_ZN6BufferD1Ev
 475              		.set	_ZN6BufferD1Ev,_ZN6BufferD2Ev
 476              	.Letext0:
 477              		.file 2 "src/../h/../h/../h/../lib/hw.h"
 478              		.file 3 "src/../h/../h/../h/../h/syscall_cpp.hpp"
 479              		.file 4 "src/../h/../h/../h/SCB.hpp"
 480              		.file 5 "src/../h/../h/../h/tcb.hpp"
 481              		.file 6 "src/../h/../h/../h/queue.hpp"
 482              		.file 7 "src/../h/buffer.hpp"
 483              		.file 8 "src/../h/../h/syscall_c.hpp"
 484              		.file 9 "src/../h/printing.hpp"
 3455              		.align	3
 3458              	DW.ref.__gxx_personality_v0:
 3459 0000 00000000 		.dword	__gxx_personality_v0
 3459      00000000 
 3460              		.ident	"GCC: (Ubuntu 9.4.0-1ubuntu1~20.04) 9.4.0"
 3461              		.section	.note.GNU-stack,"",@progbits
GAS LISTING /tmp/ccVDQtdn.s 			page 12


DEFINED SYMBOLS
                            *ABS*:0000000000000000 buffer.cpp
     /tmp/ccVDQtdn.s:9      .text:0000000000000000 _ZN6BufferC2Ei
     /tmp/ccVDQtdn.s:13     .text:0000000000000000 .L0 
     /tmp/ccVDQtdn.s:15     .text:0000000000000000 .L0 
     /tmp/ccVDQtdn.s:16     .text:0000000000000004 .L0 
     /tmp/ccVDQtdn.s:21     .text:0000000000000014 .L0 
     /tmp/ccVDQtdn.s:22     .text:0000000000000014 .L0 
     /tmp/ccVDQtdn.s:23     .text:0000000000000014 .L0 
     /tmp/ccVDQtdn.s:24     .text:0000000000000014 .L0 
     /tmp/ccVDQtdn.s:26     .text:0000000000000018 .L0 
     /tmp/ccVDQtdn.s:31     .text:0000000000000020 .L0 
     /tmp/ccVDQtdn.s:35     .text:0000000000000028 .L0 
     /tmp/ccVDQtdn.s:39     .text:0000000000000034 .L0 
     /tmp/ccVDQtdn.s:40     .text:0000000000000034 .L0 
     /tmp/ccVDQtdn.s:44     .text:0000000000000040 .L0 
     /tmp/ccVDQtdn.s:46     .text:0000000000000044 .L0 
     /tmp/ccVDQtdn.s:47     .text:0000000000000044 .L0 
     /tmp/ccVDQtdn.s:52     .text:0000000000000054 .L0 
     /tmp/ccVDQtdn.s:53     .text:0000000000000054 .L0 
     /tmp/ccVDQtdn.s:58     .text:0000000000000064 .L0 
     /tmp/ccVDQtdn.s:59     .text:0000000000000064 .L0 
     /tmp/ccVDQtdn.s:64     .text:0000000000000074 .L0 
     /tmp/ccVDQtdn.s:65     .text:0000000000000074 .L0 
     /tmp/ccVDQtdn.s:71     .text:0000000000000084 .L0 
     /tmp/ccVDQtdn.s:72     .text:0000000000000088 .L0 
     /tmp/ccVDQtdn.s:74     .text:000000000000008c .L0 
     /tmp/ccVDQtdn.s:75     .text:000000000000008c .L0 
     /tmp/ccVDQtdn.s:77     .text:0000000000000090 .L0 
     /tmp/ccVDQtdn.s:80     .text:0000000000000094 .L0 
     /tmp/ccVDQtdn.s:82     .text:0000000000000098 .L0 
     /tmp/ccVDQtdn.s:84     .text:000000000000009c .L0 
     /tmp/ccVDQtdn.s:9      .text:0000000000000000 _ZN6BufferC1Ei
     /tmp/ccVDQtdn.s:92     .text:000000000000009c _ZN6Buffer3putEi
     /tmp/ccVDQtdn.s:95     .text:000000000000009c .L0 
     /tmp/ccVDQtdn.s:97     .text:000000000000009c .L0 
     /tmp/ccVDQtdn.s:98     .text:00000000000000a0 .L0 
     /tmp/ccVDQtdn.s:103    .text:00000000000000b0 .L0 
     /tmp/ccVDQtdn.s:104    .text:00000000000000b0 .L0 
     /tmp/ccVDQtdn.s:105    .text:00000000000000b0 .L0 
     /tmp/ccVDQtdn.s:106    .text:00000000000000b0 .L0 
     /tmp/ccVDQtdn.s:108    .text:00000000000000b4 .L0 
     /tmp/ccVDQtdn.s:112    .text:00000000000000bc .L0 
     /tmp/ccVDQtdn.s:113    .text:00000000000000bc .L0 
     /tmp/ccVDQtdn.s:118    .text:00000000000000c8 .L0 
     /tmp/ccVDQtdn.s:119    .text:00000000000000c8 .L0 
     /tmp/ccVDQtdn.s:123    .text:00000000000000d4 .L0 
     /tmp/ccVDQtdn.s:125    .text:00000000000000d8 .L0 
     /tmp/ccVDQtdn.s:127    .text:00000000000000dc .L0 
     /tmp/ccVDQtdn.s:130    .text:00000000000000e4 .L0 
     /tmp/ccVDQtdn.s:132    .text:00000000000000e8 .L0 
     /tmp/ccVDQtdn.s:133    .text:00000000000000e8 .L0 
     /tmp/ccVDQtdn.s:135    .text:00000000000000ec .L0 
     /tmp/ccVDQtdn.s:137    .text:00000000000000f0 .L0 
     /tmp/ccVDQtdn.s:139    .text:00000000000000f4 .L0 
     /tmp/ccVDQtdn.s:141    .text:00000000000000f8 .L0 
     /tmp/ccVDQtdn.s:143    .text:00000000000000fc .L0 
GAS LISTING /tmp/ccVDQtdn.s 			page 13


     /tmp/ccVDQtdn.s:144    .text:00000000000000fc .L0 
     /tmp/ccVDQtdn.s:148    .text:0000000000000108 .L0 
     /tmp/ccVDQtdn.s:149    .text:0000000000000108 .L0 
     /tmp/ccVDQtdn.s:153    .text:0000000000000114 .L0 
     /tmp/ccVDQtdn.s:154    .text:0000000000000118 .L0 
     /tmp/ccVDQtdn.s:156    .text:000000000000011c .L0 
     /tmp/ccVDQtdn.s:157    .text:000000000000011c .L0 
     /tmp/ccVDQtdn.s:159    .text:0000000000000120 .L0 
     /tmp/ccVDQtdn.s:162    .text:0000000000000124 .L0 
     /tmp/ccVDQtdn.s:164    .text:0000000000000128 .L0 
     /tmp/ccVDQtdn.s:166    .text:000000000000012c .L0 
     /tmp/ccVDQtdn.s:172    .text:000000000000012c _ZN6Buffer3getEv
     /tmp/ccVDQtdn.s:175    .text:000000000000012c .L0 
     /tmp/ccVDQtdn.s:177    .text:000000000000012c .L0 
     /tmp/ccVDQtdn.s:178    .text:0000000000000130 .L0 
     /tmp/ccVDQtdn.s:183    .text:0000000000000140 .L0 
     /tmp/ccVDQtdn.s:184    .text:0000000000000140 .L0 
     /tmp/ccVDQtdn.s:185    .text:0000000000000140 .L0 
     /tmp/ccVDQtdn.s:186    .text:0000000000000140 .L0 
     /tmp/ccVDQtdn.s:188    .text:0000000000000144 .L0 
     /tmp/ccVDQtdn.s:191    .text:0000000000000148 .L0 
     /tmp/ccVDQtdn.s:192    .text:0000000000000148 .L0 
     /tmp/ccVDQtdn.s:197    .text:0000000000000154 .L0 
     /tmp/ccVDQtdn.s:198    .text:0000000000000154 .L0 
     /tmp/ccVDQtdn.s:202    .text:0000000000000160 .L0 
     /tmp/ccVDQtdn.s:203    .text:0000000000000160 .L0 
     /tmp/ccVDQtdn.s:205    .text:0000000000000164 .L0 
     /tmp/ccVDQtdn.s:207    .text:0000000000000168 .L0 
     /tmp/ccVDQtdn.s:210    .text:0000000000000170 .L0 
     /tmp/ccVDQtdn.s:213    .text:0000000000000174 .L0 
     /tmp/ccVDQtdn.s:214    .text:0000000000000174 .L0 
     /tmp/ccVDQtdn.s:216    .text:0000000000000178 .L0 
     /tmp/ccVDQtdn.s:218    .text:000000000000017c .L0 
     /tmp/ccVDQtdn.s:220    .text:0000000000000180 .L0 
     /tmp/ccVDQtdn.s:222    .text:0000000000000184 .L0 
     /tmp/ccVDQtdn.s:223    .text:0000000000000184 .L0 
     /tmp/ccVDQtdn.s:227    .text:0000000000000190 .L0 
     /tmp/ccVDQtdn.s:228    .text:0000000000000190 .L0 
     /tmp/ccVDQtdn.s:232    .text:000000000000019c .L0 
     /tmp/ccVDQtdn.s:233    .text:000000000000019c .L0 
     /tmp/ccVDQtdn.s:235    .text:00000000000001a4 .L0 
     /tmp/ccVDQtdn.s:237    .text:00000000000001a8 .L0 
     /tmp/ccVDQtdn.s:238    .text:00000000000001a8 .L0 
     /tmp/ccVDQtdn.s:240    .text:00000000000001ac .L0 
     /tmp/ccVDQtdn.s:243    .text:00000000000001b0 .L0 
     /tmp/ccVDQtdn.s:246    .text:00000000000001b4 .L0 
     /tmp/ccVDQtdn.s:248    .text:00000000000001b8 .L0 
     /tmp/ccVDQtdn.s:254    .text:00000000000001b8 _ZN6Buffer6getCntEv
     /tmp/ccVDQtdn.s:257    .text:00000000000001b8 .L0 
     /tmp/ccVDQtdn.s:259    .text:00000000000001b8 .L0 
     /tmp/ccVDQtdn.s:260    .text:00000000000001bc .L0 
     /tmp/ccVDQtdn.s:265    .text:00000000000001cc .L0 
     /tmp/ccVDQtdn.s:266    .text:00000000000001cc .L0 
     /tmp/ccVDQtdn.s:267    .text:00000000000001cc .L0 
     /tmp/ccVDQtdn.s:268    .text:00000000000001cc .L0 
     /tmp/ccVDQtdn.s:270    .text:00000000000001d0 .L0 
     /tmp/ccVDQtdn.s:273    .text:00000000000001d4 .L0 
GAS LISTING /tmp/ccVDQtdn.s 			page 14


     /tmp/ccVDQtdn.s:274    .text:00000000000001d4 .L0 
     /tmp/ccVDQtdn.s:275    .text:00000000000001d4 .L0 
     /tmp/ccVDQtdn.s:280    .text:00000000000001e0 .L0 
     /tmp/ccVDQtdn.s:281    .text:00000000000001e0 .L0 
     /tmp/ccVDQtdn.s:285    .text:00000000000001ec .L0 
     /tmp/ccVDQtdn.s:286    .text:00000000000001ec .L0 
     /tmp/ccVDQtdn.s:288    .text:00000000000001f0 .L0 
     /tmp/ccVDQtdn.s:290    .text:00000000000001f4 .L0 
     /tmp/ccVDQtdn.s:292    .text:00000000000001f8 .L0 
     /tmp/ccVDQtdn.s:293    .text:00000000000001f8 .L0 
     /tmp/ccVDQtdn.s:297    .text:00000000000001fc .L0 
     /tmp/ccVDQtdn.s:298    .text:00000000000001fc .L0 
     /tmp/ccVDQtdn.s:302    .text:0000000000000208 .L0 
     /tmp/ccVDQtdn.s:303    .text:0000000000000208 .L0 
     /tmp/ccVDQtdn.s:307    .text:0000000000000214 .L0 
     /tmp/ccVDQtdn.s:308    .text:0000000000000214 .L0 
     /tmp/ccVDQtdn.s:310    .text:000000000000021c .L0 
     /tmp/ccVDQtdn.s:311    .text:000000000000021c .L0 
     /tmp/ccVDQtdn.s:313    .text:0000000000000220 .L0 
     /tmp/ccVDQtdn.s:314    .text:0000000000000220 .L0 
     /tmp/ccVDQtdn.s:316    .text:0000000000000224 .L0 
     /tmp/ccVDQtdn.s:319    .text:0000000000000228 .L0 
     /tmp/ccVDQtdn.s:322    .text:000000000000022c .L0 
     /tmp/ccVDQtdn.s:326    .text:0000000000000230 .L0 
     /tmp/ccVDQtdn.s:328    .text:0000000000000230 .L0 
     /tmp/ccVDQtdn.s:329    .text:0000000000000230 .L0 
     /tmp/ccVDQtdn.s:331    .text:0000000000000234 .L0 
     /tmp/ccVDQtdn.s:333    .text:0000000000000238 .L0 
     /tmp/ccVDQtdn.s:335    .text:0000000000000240 .L0 
     /tmp/ccVDQtdn.s:346    .text:0000000000000240 _ZN6BufferD2Ev
     /tmp/ccVDQtdn.s:349    .text:0000000000000240 .L0 
     /tmp/ccVDQtdn.s:3458   .data.rel.local.DW.ref.__gxx_personality_v0:0000000000000000 DW.ref.__gxx_personality_v0
     /tmp/ccVDQtdn.s:353    .text:0000000000000240 .L0 
     /tmp/ccVDQtdn.s:354    .text:0000000000000244 .L0 
     /tmp/ccVDQtdn.s:358    .text:0000000000000250 .L0 
     /tmp/ccVDQtdn.s:359    .text:0000000000000250 .L0 
     /tmp/ccVDQtdn.s:360    .text:0000000000000250 .L0 
     /tmp/ccVDQtdn.s:362    .text:0000000000000254 .L0 
     /tmp/ccVDQtdn.s:366    .text:0000000000000258 .L0 
     /tmp/ccVDQtdn.s:367    .text:0000000000000258 .L0 
     /tmp/ccVDQtdn.s:372    .text:0000000000000264 .L0 
     /tmp/ccVDQtdn.s:373    .text:0000000000000264 .L0 
     /tmp/ccVDQtdn.s:378    .text:0000000000000274 .L0 
     /tmp/ccVDQtdn.s:379    .text:0000000000000274 .L0 
     /tmp/ccVDQtdn.s:380    .text:0000000000000274 .L0 
     /tmp/ccVDQtdn.s:384    .text:0000000000000280 .L0 
     /tmp/ccVDQtdn.s:387    .text:0000000000000284 .L0 
     /tmp/ccVDQtdn.s:388    .text:0000000000000284 .L0 
     /tmp/ccVDQtdn.s:390    .text:0000000000000288 .L0 
     /tmp/ccVDQtdn.s:392    .text:000000000000028c .L0 
     /tmp/ccVDQtdn.s:396    .text:0000000000000294 .L0 
     /tmp/ccVDQtdn.s:397    .text:0000000000000294 .L0 
     /tmp/ccVDQtdn.s:401    .text:00000000000002a0 .L0 
     /tmp/ccVDQtdn.s:402    .text:00000000000002a0 .L0 
     /tmp/ccVDQtdn.s:404    .text:00000000000002a4 .L0 
     /tmp/ccVDQtdn.s:406    .text:00000000000002a8 .L0 
     /tmp/ccVDQtdn.s:408    .text:00000000000002ac .L0 
GAS LISTING /tmp/ccVDQtdn.s 			page 15


     /tmp/ccVDQtdn.s:410    .text:00000000000002b0 .L0 
     /tmp/ccVDQtdn.s:413    .text:00000000000002b4 .L0 
     /tmp/ccVDQtdn.s:416    .text:00000000000002b8 .L0 
     /tmp/ccVDQtdn.s:417    .text:00000000000002b8 .L0 
     /tmp/ccVDQtdn.s:421    .text:00000000000002c4 .L0 
     /tmp/ccVDQtdn.s:422    .text:00000000000002c4 .L0 
     /tmp/ccVDQtdn.s:426    .text:00000000000002d0 .L0 
     /tmp/ccVDQtdn.s:427    .text:00000000000002d0 .L0 
     /tmp/ccVDQtdn.s:431    .text:00000000000002dc .L0 
     /tmp/ccVDQtdn.s:432    .text:00000000000002dc .L0 
     /tmp/ccVDQtdn.s:436    .text:00000000000002e8 .L0 
     /tmp/ccVDQtdn.s:437    .text:00000000000002e8 .L0 
     /tmp/ccVDQtdn.s:441    .text:00000000000002f4 .L0 
     /tmp/ccVDQtdn.s:442    .text:00000000000002f4 .L0 
     /tmp/ccVDQtdn.s:446    .text:0000000000000300 .L0 
     /tmp/ccVDQtdn.s:447    .text:0000000000000300 .L0 
     /tmp/ccVDQtdn.s:452    .text:000000000000030c .L0 
     /tmp/ccVDQtdn.s:453    .text:0000000000000310 .L0 
     /tmp/ccVDQtdn.s:455    .text:0000000000000314 .L0 
     /tmp/ccVDQtdn.s:456    .text:0000000000000314 .L0 
     /tmp/ccVDQtdn.s:458    .text:0000000000000318 .L0 
     /tmp/ccVDQtdn.s:461    .text:000000000000031c .L0 
     /tmp/ccVDQtdn.s:463    .text:0000000000000320 .L0 
     /tmp/ccVDQtdn.s:346    .text:0000000000000240 _ZN6BufferD1Ev
     /tmp/ccVDQtdn.s:485    .text:0000000000000320 .L0 
     /tmp/ccVDQtdn.s:340    .rodata.str1.8:0000000000000000 .LC0
     /tmp/ccVDQtdn.s:373    .text:0000000000000264 .L0 
     /tmp/ccVDQtdn.s:325    .text:0000000000000230 .L8
     /tmp/ccVDQtdn.s:295    .text:00000000000001fc .L9
     /tmp/ccVDQtdn.s:414    .text:00000000000002b8 .L12
     /tmp/ccVDQtdn.s:376    .text:0000000000000274 .L13
     /tmp/ccVDQtdn.s:1990   .debug_abbrev:0000000000000000 .Ldebug_abbrev0
     /tmp/ccVDQtdn.s:3372   .debug_str:00000000000006ce .LASF151
     /tmp/ccVDQtdn.s:3264   .debug_str:0000000000000435 .LASF152
     /tmp/ccVDQtdn.s:3310   .debug_str:0000000000000556 .LASF153
     /tmp/ccVDQtdn.s:5      .text:0000000000000000 .Ltext0
     /tmp/ccVDQtdn.s:476    .text:0000000000000320 .Letext0
     /tmp/ccVDQtdn.s:3124   .debug_line:0000000000000000 .Ldebug_line0
     /tmp/ccVDQtdn.s:3230   .debug_str:0000000000000320 .LASF0
     /tmp/ccVDQtdn.s:3244   .debug_str:00000000000003a2 .LASF1
     /tmp/ccVDQtdn.s:3312   .debug_str:0000000000000574 .LASF2
     /tmp/ccVDQtdn.s:3320   .debug_str:00000000000005a4 .LASF4
     /tmp/ccVDQtdn.s:3236   .debug_str:0000000000000360 .LASF3
     /tmp/ccVDQtdn.s:3142   .debug_str:0000000000000075 .LASF5
     /tmp/ccVDQtdn.s:3288   .debug_str:00000000000004c1 .LASF6
     /tmp/ccVDQtdn.s:3242   .debug_str:000000000000038f .LASF7
     /tmp/ccVDQtdn.s:3208   .debug_str:0000000000000282 .LASF8
     /tmp/ccVDQtdn.s:3216   .debug_str:00000000000002b1 .LASF9
     /tmp/ccVDQtdn.s:3168   .debug_str:000000000000014b .LASF10
     /tmp/ccVDQtdn.s:3202   .debug_str:0000000000000262 .LASF11
     /tmp/ccVDQtdn.s:3176   .debug_str:000000000000018a .LASF12
     /tmp/ccVDQtdn.s:3166   .debug_str:000000000000013b .LASF13
     /tmp/ccVDQtdn.s:3348   .debug_str:0000000000000655 .LASF14
     /tmp/ccVDQtdn.s:3196   .debug_str:0000000000000217 .LASF15
     /tmp/ccVDQtdn.s:3342   .debug_str:000000000000062d .LASF16
     /tmp/ccVDQtdn.s:3364   .debug_str:00000000000006a8 .LASF17
     /tmp/ccVDQtdn.s:3428   .debug_str:00000000000008fc .LASF18
GAS LISTING /tmp/ccVDQtdn.s 			page 16


     /tmp/ccVDQtdn.s:3188   .debug_str:00000000000001d8 .LASF19
     /tmp/ccVDQtdn.s:3422   .debug_str:00000000000008d5 .LASF21
     /tmp/ccVDQtdn.s:3354   .debug_str:000000000000067a .LASF20
     /tmp/ccVDQtdn.s:3240   .debug_str:000000000000037e .LASF22
     /tmp/ccVDQtdn.s:3296   .debug_str:0000000000000503 .LASF125
     /tmp/ccVDQtdn.s:3174   .debug_str:0000000000000180 .LASF23
     /tmp/ccVDQtdn.s:3156   .debug_str:00000000000000cd .LASF25
     /tmp/ccVDQtdn.s:3398   .debug_str:0000000000000841 .LASF24
     /tmp/ccVDQtdn.s:3278   .debug_str:0000000000000484 .LASF26
     /tmp/ccVDQtdn.s:3146   .debug_str:0000000000000085 .LASF127
     /tmp/ccVDQtdn.s:3442   .debug_str:000000000000093e .LASF27
     /tmp/ccVDQtdn.s:3190   .debug_str:00000000000001dd .LASF28
     /tmp/ccVDQtdn.s:3134   .debug_str:0000000000000027 .LASF31
     /tmp/ccVDQtdn.s:3352   .debug_str:000000000000066d .LASF33
     /tmp/ccVDQtdn.s:3160   .debug_str:00000000000000ef .LASF29
     /tmp/ccVDQtdn.s:3350   .debug_str:0000000000000661 .LASF30
     /tmp/ccVDQtdn.s:3340   .debug_str:000000000000061a .LASF32
     /tmp/ccVDQtdn.s:3434   .debug_str:0000000000000913 .LASF34
     /tmp/ccVDQtdn.s:3424   .debug_str:00000000000008e4 .LASF35
     /tmp/ccVDQtdn.s:3254   .debug_str:00000000000003f3 .LASF36
     /tmp/ccVDQtdn.s:3224   .debug_str:0000000000000309 .LASF154
     /tmp/ccVDQtdn.s:3226   .debug_str:0000000000000311 .LASF37
     /tmp/ccVDQtdn.s:3358   .debug_str:000000000000068a .LASF155
     /tmp/ccVDQtdn.s:3322   .debug_str:00000000000005ab .LASF38
     /tmp/ccVDQtdn.s:3138   .debug_str:000000000000005f .LASF39
     /tmp/ccVDQtdn.s:3360   .debug_str:0000000000000692 .LASF40
     /tmp/ccVDQtdn.s:3274   .debug_str:0000000000000468 .LASF41
     /tmp/ccVDQtdn.s:3152   .debug_str:00000000000000b0 .LASF42
     /tmp/ccVDQtdn.s:3390   .debug_str:000000000000080b .LASF43
     /tmp/ccVDQtdn.s:3362   .debug_str:000000000000069d .LASF44
     /tmp/ccVDQtdn.s:3200   .debug_str:000000000000024c .LASF45
     /tmp/ccVDQtdn.s:3316   .debug_str:000000000000058f .LASF46
     /tmp/ccVDQtdn.s:3162   .debug_str:00000000000000ff .LASF47
     /tmp/ccVDQtdn.s:3380   .debug_str:00000000000007d0 .LASF48
     /tmp/ccVDQtdn.s:3250   .debug_str:00000000000003c5 .LASF49
     /tmp/ccVDQtdn.s:3284   .debug_str:00000000000004ab .LASF156
     /tmp/ccVDQtdn.s:3302   .debug_str:0000000000000531 .LASF50
     /tmp/ccVDQtdn.s:3234   .debug_str:000000000000034d .LASF51
     /tmp/ccVDQtdn.s:3272   .debug_str:0000000000000461 .LASF52
     /tmp/ccVDQtdn.s:3328   .debug_str:00000000000005ca .LASF53
     /tmp/ccVDQtdn.s:3420   .debug_str:00000000000008cf .LASF54
     /tmp/ccVDQtdn.s:3258   .debug_str:0000000000000413 .LASF55
     /tmp/ccVDQtdn.s:3150   .debug_str:00000000000000a8 .LASF56
     /tmp/ccVDQtdn.s:3180   .debug_str:00000000000001a8 .LASF57
     /tmp/ccVDQtdn.s:3436   .debug_str:0000000000000920 .LASF58
     /tmp/ccVDQtdn.s:3418   .debug_str:00000000000008bf .LASF59
     /tmp/ccVDQtdn.s:3346   .debug_str:0000000000000648 .LASF60
     /tmp/ccVDQtdn.s:3222   .debug_str:00000000000002e6 .LASF61
     /tmp/ccVDQtdn.s:3248   .debug_str:00000000000003bf .LASF85
     /tmp/ccVDQtdn.s:3376   .debug_str:00000000000007a6 .LASF87
     /tmp/ccVDQtdn.s:3368   .debug_str:00000000000006b2 .LASF157
     /tmp/ccVDQtdn.s:3366   .debug_str:00000000000006ad .LASF62
     /tmp/ccVDQtdn.s:3126   .debug_str:0000000000000000 .LASF63
     /tmp/ccVDQtdn.s:3212   .debug_str:0000000000000297 .LASF64
     /tmp/ccVDQtdn.s:3262   .debug_str:0000000000000428 .LASF65
     /tmp/ccVDQtdn.s:3206   .debug_str:0000000000000276 .LASF66
     /tmp/ccVDQtdn.s:3314   .debug_str:0000000000000582 .LASF67
GAS LISTING /tmp/ccVDQtdn.s 			page 17


     /tmp/ccVDQtdn.s:3414   .debug_str:0000000000000898 .LASF68
     /tmp/ccVDQtdn.s:3374   .debug_str:0000000000000792 .LASF69
     /tmp/ccVDQtdn.s:3132   .debug_str:0000000000000022 .LASF70
     /tmp/ccVDQtdn.s:3438   .debug_str:0000000000000926 .LASF71
     /tmp/ccVDQtdn.s:3386   .debug_str:00000000000007f4 .LASF72
     /tmp/ccVDQtdn.s:3356   .debug_str:0000000000000681 .LASF73
     /tmp/ccVDQtdn.s:3282   .debug_str:00000000000004a3 .LASF74
     /tmp/ccVDQtdn.s:3330   .debug_str:00000000000005dc .LASF75
     /tmp/ccVDQtdn.s:3290   .debug_str:00000000000004d4 .LASF76
     /tmp/ccVDQtdn.s:3158   .debug_str:00000000000000e1 .LASF77
     /tmp/ccVDQtdn.s:3252   .debug_str:00000000000003da .LASF79
     /tmp/ccVDQtdn.s:3178   .debug_str:000000000000019a .LASF81
     /tmp/ccVDQtdn.s:3136   .debug_str:0000000000000037 .LASF83
     /tmp/ccVDQtdn.s:3186   .debug_str:00000000000001cf .LASF78
     /tmp/ccVDQtdn.s:3170   .debug_str:000000000000015a .LASF80
     /tmp/ccVDQtdn.s:3406   .debug_str:0000000000000866 .LASF82
     /tmp/ccVDQtdn.s:3400   .debug_str:0000000000000846 .LASF84
     /tmp/ccVDQtdn.s:3336   .debug_str:00000000000005f6 .LASF86
     /tmp/ccVDQtdn.s:3148   .debug_str:0000000000000094 .LASF88
     /tmp/ccVDQtdn.s:3326   .debug_str:00000000000005c1 .LASF89
     /tmp/ccVDQtdn.s:3280   .debug_str:0000000000000490 .LASF90
     /tmp/ccVDQtdn.s:3318   .debug_str:0000000000000599 .LASF158
     /tmp/ccVDQtdn.s:3332   .debug_str:00000000000005e4 .LASF91
     /tmp/ccVDQtdn.s:3402   .debug_str:0000000000000859 .LASF159
     /tmp/ccVDQtdn.s:3210   .debug_str:0000000000000292 .LASF92
     /tmp/ccVDQtdn.s:3260   .debug_str:0000000000000423 .LASF93
     /tmp/ccVDQtdn.s:3382   .debug_str:00000000000007da .LASF94
     /tmp/ccVDQtdn.s:3370   .debug_str:00000000000006ba .LASF95
     /tmp/ccVDQtdn.s:3300   .debug_str:0000000000000519 .LASF96
     /tmp/ccVDQtdn.s:3182   .debug_str:00000000000001bb .LASF160
     /tmp/ccVDQtdn.s:3220   .debug_str:00000000000002ce .LASF161
     /tmp/ccVDQtdn.s:3446   .debug_str:000000000000095e .LASF97
     /tmp/ccVDQtdn.s:3338   .debug_str:0000000000000600 .LASF98
     /tmp/ccVDQtdn.s:3298   .debug_str:000000000000050f .LASF99
     /tmp/ccVDQtdn.s:3192   .debug_str:00000000000001e9 .LASF100
     /tmp/ccVDQtdn.s:3294   .debug_str:00000000000004fd .LASF101
     /tmp/ccVDQtdn.s:3412   .debug_str:000000000000087d .LASF102
     /tmp/ccVDQtdn.s:3238   .debug_str:0000000000000372 .LASF103
     /tmp/ccVDQtdn.s:3198   .debug_str:000000000000022d .LASF104
     /tmp/ccVDQtdn.s:3404   .debug_str:000000000000085e .LASF105
     /tmp/ccVDQtdn.s:3378   .debug_str:00000000000007b6 .LASF106
     /tmp/ccVDQtdn.s:3256   .debug_str:0000000000000406 .LASF107
     /tmp/ccVDQtdn.s:3232   .debug_str:000000000000032d .LASF108
     /tmp/ccVDQtdn.s:3128   .debug_str:000000000000000f .LASF109
     /tmp/ccVDQtdn.s:3292   .debug_str:00000000000004e3 .LASF110
     /tmp/ccVDQtdn.s:3154   .debug_str:00000000000000bc .LASF111
     /tmp/ccVDQtdn.s:3164   .debug_str:0000000000000114 .LASF112
     /tmp/ccVDQtdn.s:3306   .debug_str:0000000000000543 .LASF113
     /tmp/ccVDQtdn.s:3410   .debug_str:0000000000000876 .LASF114
     /tmp/ccVDQtdn.s:3334   .debug_str:00000000000005ef .LASF115
     /tmp/ccVDQtdn.s:3344   .debug_str:0000000000000643 .LASF116
     /tmp/ccVDQtdn.s:3276   .debug_str:000000000000047f .LASF117
     /tmp/ccVDQtdn.s:3388   .debug_str:00000000000007fc .LASF118
     /tmp/ccVDQtdn.s:3268   .debug_str:0000000000000449 .LASF119
     /tmp/ccVDQtdn.s:3246   .debug_str:00000000000003b5 .LASF120
     /tmp/ccVDQtdn.s:3184   .debug_str:00000000000001c5 .LASF121
     /tmp/ccVDQtdn.s:3426   .debug_str:00000000000008ed .LASF122
GAS LISTING /tmp/ccVDQtdn.s 			page 18


     /tmp/ccVDQtdn.s:3408   .debug_str:000000000000086e .LASF123
     /tmp/ccVDQtdn.s:3394   .debug_str:000000000000082b .LASF124
     /tmp/ccVDQtdn.s:3286   .debug_str:00000000000004b0 .LASF126
     /tmp/ccVDQtdn.s:3324   .debug_str:00000000000005b0 .LASF128
     /tmp/ccVDQtdn.s:3396   .debug_str:000000000000083a .LASF129
     /tmp/ccVDQtdn.s:3450   .debug_str:000000000000096e .LASF130
     /tmp/ccVDQtdn.s:255    .text:00000000000001b8 .LFB43
     /tmp/ccVDQtdn.s:336    .text:0000000000000240 .LFE43
     /tmp/ccVDQtdn.s:3204   .debug_str:0000000000000271 .LASF131
     /tmp/ccVDQtdn.s:2963   .debug_loc:0000000000000000 .LLST6
     /tmp/ccVDQtdn.s:2985   .debug_loc:000000000000005f .LLST7
     /tmp/ccVDQtdn.s:278    .text:00000000000001e0 .LVL26
     /tmp/ccVDQtdn.s:283    .text:00000000000001ec .LVL27
     /tmp/ccVDQtdn.s:300    .text:0000000000000208 .LVL29
     /tmp/ccVDQtdn.s:305    .text:0000000000000214 .LVL30
     /tmp/ccVDQtdn.s:173    .text:000000000000012c .LFB42
     /tmp/ccVDQtdn.s:249    .text:00000000000001b8 .LFE42
     /tmp/ccVDQtdn.s:2992   .debug_loc:0000000000000082 .LLST4
     /tmp/ccVDQtdn.s:3010   .debug_loc:00000000000000ce .LLST5
     /tmp/ccVDQtdn.s:195    .text:0000000000000154 .LVL17
     /tmp/ccVDQtdn.s:200    .text:0000000000000160 .LVL18
     /tmp/ccVDQtdn.s:225    .text:0000000000000190 .LVL20
     /tmp/ccVDQtdn.s:230    .text:000000000000019c .LVL21
     /tmp/ccVDQtdn.s:93     .text:000000000000009c .LFB41
     /tmp/ccVDQtdn.s:167    .text:000000000000012c .LFE41
     /tmp/ccVDQtdn.s:3021   .debug_loc:0000000000000104 .LLST2
     /tmp/ccVDQtdn.s:3039   .debug_loc:0000000000000150 .LLST3
     /tmp/ccVDQtdn.s:116    .text:00000000000000c8 .LVL10
     /tmp/ccVDQtdn.s:121    .text:00000000000000d4 .LVL11
     /tmp/ccVDQtdn.s:146    .text:0000000000000108 .LVL12
     /tmp/ccVDQtdn.s:151    .text:0000000000000114 .LVL13
     /tmp/ccVDQtdn.s:3140   .debug_str:000000000000006b .LASF132
     /tmp/ccVDQtdn.s:3194   .debug_str:0000000000000208 .LASF133
     /tmp/ccVDQtdn.s:347    .text:0000000000000240 .LFB39
     /tmp/ccVDQtdn.s:464    .text:0000000000000320 .LFE39
     /tmp/ccVDQtdn.s:3053   .debug_loc:0000000000000189 .LLST8
     /tmp/ccVDQtdn.s:399    .text:00000000000002a0 .LVL40
     /tmp/ccVDQtdn.s:385    .text:0000000000000284 .LBB4
     /tmp/ccVDQtdn.s:411    .text:00000000000002b4 .LBE4
     /tmp/ccVDQtdn.s:3071   .debug_loc:00000000000001d5 .LLST9
     /tmp/ccVDQtdn.s:370    .text:0000000000000264 .LVL36
     /tmp/ccVDQtdn.s:375    .text:0000000000000274 .LVL37
     /tmp/ccVDQtdn.s:382    .text:0000000000000280 .LVL38
     /tmp/ccVDQtdn.s:419    .text:00000000000002c4 .LVL41
     /tmp/ccVDQtdn.s:424    .text:00000000000002d0 .LVL42
     /tmp/ccVDQtdn.s:429    .text:00000000000002dc .LVL43
     /tmp/ccVDQtdn.s:434    .text:00000000000002e8 .LVL44
     /tmp/ccVDQtdn.s:439    .text:00000000000002f4 .LVL45
     /tmp/ccVDQtdn.s:444    .text:0000000000000300 .LVL46
     /tmp/ccVDQtdn.s:449    .text:000000000000030c .LVL47
     /tmp/ccVDQtdn.s:3430   .debug_str:0000000000000902 .LASF162
     /tmp/ccVDQtdn.s:3218   .debug_str:00000000000002bf .LASF134
     /tmp/ccVDQtdn.s:10     .text:0000000000000000 .LFB36
     /tmp/ccVDQtdn.s:85     .text:000000000000009c .LFE36
     /tmp/ccVDQtdn.s:3079   .debug_loc:00000000000001f9 .LLST0
     /tmp/ccVDQtdn.s:3097   .debug_loc:0000000000000245 .LLST1
     /tmp/ccVDQtdn.s:42     .text:0000000000000040 .LVL2
GAS LISTING /tmp/ccVDQtdn.s 			page 19


     /tmp/ccVDQtdn.s:50     .text:0000000000000054 .LVL3
     /tmp/ccVDQtdn.s:56     .text:0000000000000064 .LVL4
     /tmp/ccVDQtdn.s:62     .text:0000000000000074 .LVL5
     /tmp/ccVDQtdn.s:68     .text:0000000000000084 .LVL6
     /tmp/ccVDQtdn.s:3416   .debug_str:00000000000008ae .LASF135
     /tmp/ccVDQtdn.s:3448   .debug_str:0000000000000965 .LASF137
     /tmp/ccVDQtdn.s:3384   .debug_str:00000000000007e0 .LASF136
     /tmp/ccVDQtdn.s:3130   .debug_str:0000000000000017 .LASF138
     /tmp/ccVDQtdn.s:3144   .debug_str:000000000000007c .LASF139
     /tmp/ccVDQtdn.s:3266   .debug_str:0000000000000444 .LASF140
     /tmp/ccVDQtdn.s:3172   .debug_str:000000000000016d .LASF141
     /tmp/ccVDQtdn.s:3432   .debug_str:0000000000000907 .LASF142
     /tmp/ccVDQtdn.s:3308   .debug_str:0000000000000548 .LASF143
     /tmp/ccVDQtdn.s:3228   .debug_str:0000000000000317 .LASF144
     /tmp/ccVDQtdn.s:3440   .debug_str:000000000000092c .LASF145
     /tmp/ccVDQtdn.s:3304   .debug_str:0000000000000539 .LASF146
     /tmp/ccVDQtdn.s:3214   .debug_str:00000000000002a3 .LASF147
     /tmp/ccVDQtdn.s:3270   .debug_str:0000000000000457 .LASF148
     /tmp/ccVDQtdn.s:3444   .debug_str:000000000000094b .LASF149
     /tmp/ccVDQtdn.s:3392   .debug_str:0000000000000822 .LASF150
     /tmp/ccVDQtdn.s:258    .text:00000000000001b8 .LVL24
     /tmp/ccVDQtdn.s:276    .text:00000000000001d8 .LVL25
     /tmp/ccVDQtdn.s:317    .text:0000000000000224 .LVL31
     /tmp/ccVDQtdn.s:324    .text:0000000000000230 .LVL33
     /tmp/ccVDQtdn.s:294    .text:00000000000001fc .LVL28
     /tmp/ccVDQtdn.s:320    .text:0000000000000228 .LVL32
     /tmp/ccVDQtdn.s:176    .text:000000000000012c .LVL15
     /tmp/ccVDQtdn.s:193    .text:000000000000014c .LVL16
     /tmp/ccVDQtdn.s:241    .text:00000000000001ac .LVL22
     /tmp/ccVDQtdn.s:211    .text:0000000000000174 .LVL19
     /tmp/ccVDQtdn.s:244    .text:00000000000001b0 .LVL23
     /tmp/ccVDQtdn.s:96     .text:000000000000009c .LVL8
     /tmp/ccVDQtdn.s:114    .text:00000000000000c0 .LVL9
     /tmp/ccVDQtdn.s:160    .text:0000000000000120 .LVL14
     /tmp/ccVDQtdn.s:352    .text:0000000000000240 .LVL34
     /tmp/ccVDQtdn.s:368    .text:000000000000025c .LVL35
     /tmp/ccVDQtdn.s:459    .text:0000000000000318 .LVL48
     /tmp/ccVDQtdn.s:394    .text:0000000000000294 .LVL39
     /tmp/ccVDQtdn.s:14     .text:0000000000000000 .LVL0
     /tmp/ccVDQtdn.s:33     .text:0000000000000028 .LVL1
     /tmp/ccVDQtdn.s:78     .text:0000000000000090 .LVL7
     /tmp/ccVDQtdn.s:486    .debug_info:0000000000000000 .Ldebug_info0
     /tmp/ccVDQtdn.s:467    .gcc_except_table:0000000000000000 .LLSDA39

UNDEFINED SYMBOLS
_Z9mem_allocm
_Z8sem_openPP3SCBj
_Z8sem_waitP3SCB
_Z10sem_signalP3SCB
_Z4putcc
_Z11printStringPKc
_Z8mem_freePv
_Z9sem_closeP3SCB
__gxx_personality_v0
