GAS LISTING /tmp/ccF5oMN5.s 			page 1


   1              		.file	"main.cpp"
   2              		.option pic
   3              		.option norelax
   4              		.text
   5              	.Ltext0:
   6              		.section	.rodata.str1.8,"aMS",@progbits,1
   7              		.align	3
   8              	.LC0:
   9 0000 46696E69 		.string	"Finished\n"
   9      73686564 
   9      0A00
  10              		.text
  11              		.align	2
  12              		.globl	main
  14              	main:
  15              	.LFB51:
  16              		.file 1 "src/main.cpp"
   1:src/main.cpp  **** 
   2:src/main.cpp  **** 
   3:src/main.cpp  **** #include "../h/riscv.hpp"
   4:src/main.cpp  **** #include "../h/MemoryAllocator.hpp"
   5:src/main.cpp  **** #include "../h/printing.hpp"
   6:src/main.cpp  **** extern void userMain();
   7:src/main.cpp  **** int main() {
  17              		.loc 1 7 12
  18              		.cfi_startproc
  19 0000 130101FF 		addi	sp,sp,-16
  20              		.cfi_def_cfa_offset 16
  21 0004 23341100 		sd	ra,8(sp)
  22 0008 23308100 		sd	s0,0(sp)
  23              		.cfi_offset 1, -8
  24              		.cfi_offset 8, -16
  25 000c 13040101 		addi	s0,sp,16
  26              		.cfi_def_cfa 8, 0
   8:src/main.cpp  **** 
   9:src/main.cpp  ****     MemoryAllocator::memInit(); //inicijalizacija memorije
  27              		.loc 1 9 5
  28              		.loc 1 9 29 is_stmt 0
  29 0010 97000000 		call	_ZN15MemoryAllocator7memInitEv@plt
  29      E7800000 
  30              	.LVL0:
  10:src/main.cpp  **** 
  11:src/main.cpp  ****    Riscv::init();
  31              		.loc 1 11 4 is_stmt 1
  32              		.loc 1 11 15 is_stmt 0
  33 0018 97000000 		call	_ZN5Riscv4initEv@plt
  33      E7800000 
  34              	.LVL1:
  12:src/main.cpp  **** 
  13:src/main.cpp  ****     userMain();
  35              		.loc 1 13 5 is_stmt 1
  36              		.loc 1 13 13 is_stmt 0
  37 0020 97000000 		call	_Z8userMainv@plt
  37      E7800000 
  38              	.LVL2:
  14:src/main.cpp  **** 
  15:src/main.cpp  ****   
GAS LISTING /tmp/ccF5oMN5.s 			page 2


  16:src/main.cpp  **** 
  17:src/main.cpp  ****     printString("Finished\n");
  39              		.loc 1 17 5 is_stmt 1
  40              		.loc 1 17 16 is_stmt 0
  41 0028 17050000 		lla	a0,.LC0
  41      13050500 
  42 0030 97000000 		call	_Z11printStringPKc@plt
  42      E7800000 
  43              	.LVL3:
  18:src/main.cpp  ****     exit();
  44              		.loc 1 18 5 is_stmt 1
  45              		.loc 1 18 9 is_stmt 0
  46 0038 97000000 		call	_Z4exitv@plt
  46      E7800000 
  47              	.LVL4:
  19:src/main.cpp  ****     return 0;
  48              		.loc 1 19 5 is_stmt 1
  20:src/main.cpp  **** 
  21:src/main.cpp  **** }
  49              		.loc 1 21 1 is_stmt 0
  50 0040 13050000 		li	a0,0
  51 0044 83308100 		ld	ra,8(sp)
  52              		.cfi_restore 1
  53 0048 03340100 		ld	s0,0(sp)
  54              		.cfi_restore 8
  55              		.cfi_def_cfa 2, 16
  56 004c 13010101 		addi	sp,sp,16
  57              		.cfi_def_cfa_offset 0
  58 0050 67800000 		jr	ra
  59              		.cfi_endproc
  60              	.LFE51:
  62              	.Letext0:
  63              		.file 2 "src/../h/../lib/hw.h"
  64              		.file 3 "src/../h/riscv.hpp"
  65              		.file 4 "src/../h/MemoryAllocator.hpp"
  66              		.file 5 "src/../h/printing.hpp"
  67              		.file 6 "src/../h/../h/syscall_c.hpp"
GAS LISTING /tmp/ccF5oMN5.s 			page 3

