GAS LISTING /tmp/cc8HQVLL.s 			page 1


   1              		.file	"MemoryAllocator.cpp"
   2              		.option pic
   3              		.option norelax
   4              		.text
   5              	.Ltext0:
   6              		.align	2
   7              		.globl	_ZN15MemoryAllocator7memInitEv
   9              	_ZN15MemoryAllocator7memInitEv:
  10              	.LFB0:
  11              		.file 1 "src/MemoryAllocator.cpp"
   1:src/MemoryAllocator.cpp **** //
   2:src/MemoryAllocator.cpp **** // Created by os on 7/3/22.
   3:src/MemoryAllocator.cpp **** //
   4:src/MemoryAllocator.cpp **** 
   5:src/MemoryAllocator.cpp **** 
   6:src/MemoryAllocator.cpp **** #include "../h/MemoryAllocator.hpp"
   7:src/MemoryAllocator.cpp **** 
   8:src/MemoryAllocator.cpp **** MemoryAllocator::Mem* MemoryAllocator::fmem_head;
   9:src/MemoryAllocator.cpp **** 
  10:src/MemoryAllocator.cpp **** 
  11:src/MemoryAllocator.cpp **** void MemoryAllocator::memInit() {
  12              		.loc 1 11 33
  13              		.cfi_startproc
  14 0000 130101FF 		addi	sp,sp,-16
  15              		.cfi_def_cfa_offset 16
  16 0004 23348100 		sd	s0,8(sp)
  17              		.cfi_offset 8, -8
  18 0008 13040101 		addi	s0,sp,16
  19              		.cfi_def_cfa 8, 0
  12:src/MemoryAllocator.cpp ****     fmem_head=(MemoryAllocator::Mem*)HEAP_START_ADDR;
  20              		.loc 1 12 5
  21              		.loc 1 12 14 is_stmt 0
  22 000c 17070000 		la	a4,HEAP_START_ADDR
  22      03370700 
  23 0014 83360700 		ld	a3,0(a4)
  24 0018 97070000 		lla	a5,.LANCHOR0
  24      93870700 
  25 0020 23B0D700 		sd	a3,0(a5)
  13:src/MemoryAllocator.cpp ****     fmem_head->next=nullptr;
  26              		.loc 1 13 5 is_stmt 1
  27              		.loc 1 13 20 is_stmt 0
  28 0024 23B00600 		sd	zero,0(a3)
  14:src/MemoryAllocator.cpp ****     fmem_head->size=((size_t)HEAP_END_ADDR-((size_t)HEAP_START_ADDR));
  29              		.loc 1 14 5 is_stmt 1
  30              		.loc 1 14 43 is_stmt 0
  31 0028 83360700 		ld	a3,0(a4)
  32              		.loc 1 14 16
  33 002c 83B70700 		ld	a5,0(a5)
  34              		.loc 1 14 43
  35 0030 17070000 		la	a4,HEAP_END_ADDR
  35      03370700 
  36 0038 03370700 		ld	a4,0(a4)
  37 003c 3307D740 		sub	a4,a4,a3
  38              		.loc 1 14 20
  39 0040 23B4E700 		sd	a4,8(a5)
  15:src/MemoryAllocator.cpp ****     fmem_head->addr=(char*)HEAP_START_ADDR;
  40              		.loc 1 15 5 is_stmt 1
GAS LISTING /tmp/cc8HQVLL.s 			page 2


  41              		.loc 1 15 20 is_stmt 0
  42 0044 23B8D700 		sd	a3,16(a5)
  16:src/MemoryAllocator.cpp ****     fmem_head->free=1;
  43              		.loc 1 16 5 is_stmt 1
  44              		.loc 1 16 20 is_stmt 0
  45 0048 13071000 		li	a4,1
  46 004c 23ACE700 		sw	a4,24(a5)
  17:src/MemoryAllocator.cpp **** 
  18:src/MemoryAllocator.cpp **** }
  47              		.loc 1 18 1
  48 0050 03348100 		ld	s0,8(sp)
  49              		.cfi_restore 8
  50              		.cfi_def_cfa 2, 16
  51 0054 13010101 		addi	sp,sp,16
  52              		.cfi_def_cfa_offset 0
  53 0058 67800000 		jr	ra
  54              		.cfi_endproc
  55              	.LFE0:
  57              		.align	2
  58              		.globl	_Z5getBFm
  60              	_Z5getBFm:
  61              	.LFB1:
  19:src/MemoryAllocator.cpp **** 
  20:src/MemoryAllocator.cpp **** MemoryAllocator::Mem* getBF(size_t size) {
  62              		.loc 1 20 42 is_stmt 1
  63              		.cfi_startproc
  64              	.LVL0:
  65 005c 130101FF 		addi	sp,sp,-16
  66              		.cfi_def_cfa_offset 16
  67 0060 23348100 		sd	s0,8(sp)
  68              		.cfi_offset 8, -8
  69 0064 13040101 		addi	s0,sp,16
  70              		.cfi_def_cfa 8, 0
  71 0068 93060500 		mv	a3,a0
  21:src/MemoryAllocator.cpp **** 
  22:src/MemoryAllocator.cpp ****     uint64 min = 1000000000000000000;
  72              		.loc 1 22 5
  73              	.LVL1:
  23:src/MemoryAllocator.cpp ****    MemoryAllocator::Mem* tmp=MemoryAllocator::fmem_head;
  74              		.loc 1 23 4
  75              		.loc 1 23 26 is_stmt 0
  76 006c 97070000 		ld	a5,.LANCHOR0
  76      83B70700 
  77              	.LVL2:
  24:src/MemoryAllocator.cpp ****    MemoryAllocator::Mem* bf= nullptr;
  78              		.loc 1 24 4 is_stmt 1
  79              		.loc 1 24 26 is_stmt 0
  80 0074 13050000 		li	a0,0
  81              	.LVL3:
  22:src/MemoryAllocator.cpp ****    MemoryAllocator::Mem* tmp=MemoryAllocator::fmem_head;
  82              		.loc 1 22 12
  83 0078 17080000 		ld	a6,.LC0
  83      03380800 
  84 0080 6F004002 		j	.L7
  85              	.LVL4:
  86              	.L11:
  25:src/MemoryAllocator.cpp ****     while (tmp) {
GAS LISTING /tmp/cc8HQVLL.s 			page 3


  26:src/MemoryAllocator.cpp ****         if (tmp->size == size && tmp->free==1) {
  87              		.loc 1 26 39 discriminator 1
  88 0084 83A58701 		lw	a1,24(a5)
  89              		.loc 1 26 31 discriminator 1
  90 0088 13061000 		li	a2,1
  91 008c 6392C502 		bne	a1,a2,.L5
  27:src/MemoryAllocator.cpp ****             return tmp;
  92              		.loc 1 27 20
  93 0090 13850700 		mv	a0,a5
  94              	.LVL5:
  95              	.L3:
  28:src/MemoryAllocator.cpp ****         }
  29:src/MemoryAllocator.cpp ****         if (tmp->size > size && tmp->free==1) {
  30:src/MemoryAllocator.cpp ****             if ((tmp->size - size )< min) {
  31:src/MemoryAllocator.cpp ****                 min = tmp->size - size;
  32:src/MemoryAllocator.cpp ****                 bf = tmp;
  33:src/MemoryAllocator.cpp ****             }
  34:src/MemoryAllocator.cpp ****         }
  35:src/MemoryAllocator.cpp ****         tmp = tmp->next;
  36:src/MemoryAllocator.cpp ****     }
  37:src/MemoryAllocator.cpp ****     return bf;
  38:src/MemoryAllocator.cpp **** }
  96              		.loc 1 38 1
  97 0094 03348100 		ld	s0,8(sp)
  98              		.cfi_remember_state
  99              		.cfi_restore 8
 100              		.cfi_def_cfa 2, 16
 101 0098 13010101 		addi	sp,sp,16
 102              		.cfi_def_cfa_offset 0
 103 009c 67800000 		jr	ra
 104              	.LVL6:
 105              	.L6:
 106              		.cfi_restore_state
  35:src/MemoryAllocator.cpp ****     }
 107              		.loc 1 35 9 is_stmt 1
  35:src/MemoryAllocator.cpp ****     }
 108              		.loc 1 35 13 is_stmt 0
 109 00a0 83B70700 		ld	a5,0(a5)
 110              	.LVL7:
 111              	.L7:
  25:src/MemoryAllocator.cpp ****         if (tmp->size == size && tmp->free==1) {
 112              		.loc 1 25 5 is_stmt 1
  25:src/MemoryAllocator.cpp ****         if (tmp->size == size && tmp->free==1) {
 113              		.loc 1 25 12
 114 00a4 E38807FE 		beqz	a5,.L3
  26:src/MemoryAllocator.cpp ****             return tmp;
 115              		.loc 1 26 9
  26:src/MemoryAllocator.cpp ****             return tmp;
 116              		.loc 1 26 18 is_stmt 0
 117 00a8 03B78700 		ld	a4,8(a5)
  26:src/MemoryAllocator.cpp ****             return tmp;
 118              		.loc 1 26 9
 119 00ac E30CD7FC 		beq	a4,a3,.L11
 120              	.L5:
  29:src/MemoryAllocator.cpp ****             if ((tmp->size - size )< min) {
 121              		.loc 1 29 9 is_stmt 1
 122 00b0 E3F8E6FE 		bleu	a4,a3,.L6
GAS LISTING /tmp/cc8HQVLL.s 			page 4


  29:src/MemoryAllocator.cpp ****             if ((tmp->size - size )< min) {
 123              		.loc 1 29 38 is_stmt 0 discriminator 1
 124 00b4 83A58701 		lw	a1,24(a5)
  29:src/MemoryAllocator.cpp ****             if ((tmp->size - size )< min) {
 125              		.loc 1 29 30 discriminator 1
 126 00b8 13061000 		li	a2,1
 127 00bc E392C5FE 		bne	a1,a2,.L6
  30:src/MemoryAllocator.cpp ****                 min = tmp->size - size;
 128              		.loc 1 30 13 is_stmt 1
  30:src/MemoryAllocator.cpp ****                 min = tmp->size - size;
 129              		.loc 1 30 28 is_stmt 0
 130 00c0 3307D740 		sub	a4,a4,a3
  30:src/MemoryAllocator.cpp ****                 min = tmp->size - size;
 131              		.loc 1 30 13
 132 00c4 E37E07FD 		bgeu	a4,a6,.L6
  32:src/MemoryAllocator.cpp ****             }
 133              		.loc 1 32 20
 134 00c8 13850700 		mv	a0,a5
 135              	.LVL8:
  31:src/MemoryAllocator.cpp ****                 bf = tmp;
 136              		.loc 1 31 21
 137 00cc 13080700 		mv	a6,a4
 138              	.LVL9:
 139 00d0 6FF01FFD 		j	.L6
 140              		.cfi_endproc
 141              	.LFE1:
 143              		.align	2
 144              		.globl	_ZN15MemoryAllocator8memAllocEm
 146              	_ZN15MemoryAllocator8memAllocEm:
 147              	.LFB2:
  39:src/MemoryAllocator.cpp **** 
  40:src/MemoryAllocator.cpp **** void *MemoryAllocator::memAlloc(size_t size) {
 148              		.loc 1 40 46 is_stmt 1
 149              		.cfi_startproc
 150              	.LVL10:
 151 00d4 130101FF 		addi	sp,sp,-16
 152              		.cfi_def_cfa_offset 16
 153 00d8 23348100 		sd	s0,8(sp)
 154              		.cfi_offset 8, -8
 155 00dc 13040101 		addi	s0,sp,16
 156              		.cfi_def_cfa 8, 0
 157 00e0 93070500 		mv	a5,a0
  41:src/MemoryAllocator.cpp ****     if(fmem_head== nullptr|| size==0)
 158              		.loc 1 41 5
 159              		.loc 1 41 17 is_stmt 0
 160 00e4 17050000 		ld	a0,.LANCHOR0
 160      03350500 
 161              	.LVL11:
 162              		.loc 1 41 5
 163 00ec 63020506 		beqz	a0,.L12
 164              		.loc 1 41 27 discriminator 1
 165 00f0 6380070A 		beqz	a5,.L19
  42:src/MemoryAllocator.cpp ****         return nullptr;
  43:src/MemoryAllocator.cpp ****     void *res= nullptr;
 166              		.loc 1 43 5 is_stmt 1
 167              	.LVL12:
  44:src/MemoryAllocator.cpp ****     size_t size1=size+ sizeof(MemoryAllocator::Mem);
GAS LISTING /tmp/cc8HQVLL.s 			page 5


 168              		.loc 1 44 5
  45:src/MemoryAllocator.cpp ****     MemoryAllocator::Mem* cur=fmem_head;
 169              		.loc 1 45 5
  46:src/MemoryAllocator.cpp **** 
  47:src/MemoryAllocator.cpp ****     if(size>MEM_BLOCK_SIZE)
 170              		.loc 1 47 5
 171 00f4 13070004 		li	a4,64
 172 00f8 637CF700 		bleu	a5,a4,.L20
  48:src/MemoryAllocator.cpp ****         size1= (((size / MEM_BLOCK_SIZE) + 1) * MEM_BLOCK_SIZE) + sizeof(MemoryAllocator::Mem);
 173              		.loc 1 48 9
 174              		.loc 1 48 24 is_stmt 0
 175 00fc 93D66700 		srli	a3,a5,6
 176              		.loc 1 48 42
 177 0100 93861600 		addi	a3,a3,1
 178              		.loc 1 48 47
 179 0104 93966600 		slli	a3,a3,6
 180              		.loc 1 48 14
 181 0108 93860602 		addi	a3,a3,32
 182              	.LVL13:
 183 010c 6F008001 		j	.L17
 184              	.LVL14:
 185              	.L20:
  49:src/MemoryAllocator.cpp ****     else
  50:src/MemoryAllocator.cpp **** 
  51:src/MemoryAllocator.cpp ****         size1 = MEM_BLOCK_SIZE + sizeof(MemoryAllocator::Mem);
 186              		.loc 1 51 15
 187 0110 93060006 		li	a3,96
 188              	.LVL15:
 189 0114 6F000001 		j	.L17
 190              	.LVL16:
 191              	.L15:
  52:src/MemoryAllocator.cpp **** 
  53:src/MemoryAllocator.cpp ****    while(((cur->size<size1)||(cur->free==0))&& cur->next!= nullptr){
 192              		.loc 1 53 53 discriminator 3
 193 0118 83370500 		ld	a5,0(a0)
 194              		.loc 1 53 45 discriminator 3
 195 011c 638C0700 		beqz	a5,.L16
  54:src/MemoryAllocator.cpp ****         cur=cur->next;
 196              		.loc 1 54 12
 197 0120 13850700 		mv	a0,a5
 198              	.LVL17:
 199              	.L17:
  53:src/MemoryAllocator.cpp ****         cur=cur->next;
 200              		.loc 1 53 4 is_stmt 1
  53:src/MemoryAllocator.cpp ****         cur=cur->next;
 201              		.loc 1 53 45
  53:src/MemoryAllocator.cpp ****         cur=cur->next;
 202              		.loc 1 53 17 is_stmt 0
 203 0124 03378500 		ld	a4,8(a0)
  53:src/MemoryAllocator.cpp ****         cur=cur->next;
 204              		.loc 1 53 45
 205 0128 E368D7FE 		bltu	a4,a3,.L15
  53:src/MemoryAllocator.cpp ****         cur=cur->next;
 206              		.loc 1 53 36 discriminator 1
 207 012c 83278501 		lw	a5,24(a0)
  53:src/MemoryAllocator.cpp ****         cur=cur->next;
 208              		.loc 1 53 28 discriminator 1
GAS LISTING /tmp/cc8HQVLL.s 			page 6


 209 0130 E38407FE 		beqz	a5,.L15
 210              	.L16:
  55:src/MemoryAllocator.cpp ****   }
  56:src/MemoryAllocator.cpp **** 
  57:src/MemoryAllocator.cpp ****     if(cur->size>=size1){
 211              		.loc 1 57 5 is_stmt 1
 212              	.LBB2:
 213 0134 6362D706 		bltu	a4,a3,.L22
 214              	.LBE2:
  58:src/MemoryAllocator.cpp ****         if(cur->size-size1<=sizeof(MemoryAllocator::Mem)){ //ako smanjenjem ovog fragmenta, ostane 
 215              		.loc 1 58 9
 216              	.LBB6:
 217              	.LBB3:
 218              		.loc 1 58 21 is_stmt 0
 219 0138 3307D740 		sub	a4,a4,a3
 220              		.loc 1 58 9
 221 013c 93070002 		li	a5,32
 222 0140 63EEE700 		bgtu	a4,a5,.L18
  59:src/MemoryAllocator.cpp ****             //alociram ceo taj fragment
  60:src/MemoryAllocator.cpp ****             cur->free=0;
 223              		.loc 1 60 13 is_stmt 1
 224              		.loc 1 60 22 is_stmt 0
 225 0144 232C0500 		sw	zero,24(a0)
  61:src/MemoryAllocator.cpp ****             res=(void*)(cur->addr+sizeof (MemoryAllocator::Mem));
 226              		.loc 1 61 13 is_stmt 1
 227              		.loc 1 61 30 is_stmt 0
 228 0148 03350501 		ld	a0,16(a0)
 229              	.LVL18:
 230              		.loc 1 61 16
 231 014c 13050502 		addi	a0,a0,32
 232              	.LVL19:
 233              	.L12:
 234              	.LBE3:
 235              	.LBE6:
  62:src/MemoryAllocator.cpp ****         }
  63:src/MemoryAllocator.cpp ****         else {
  64:src/MemoryAllocator.cpp ****             //delim blok na dva dela
  65:src/MemoryAllocator.cpp ****             MemoryAllocator::Mem *newFrag= (MemoryAllocator::Mem *) (cur->addr+cur->size-size1);//p
  66:src/MemoryAllocator.cpp ****             cur->size -= size1;
  67:src/MemoryAllocator.cpp ****             cur->next = newFrag;
  68:src/MemoryAllocator.cpp ****             newFrag->next = cur->next;
  69:src/MemoryAllocator.cpp ****             newFrag->size = size1;
  70:src/MemoryAllocator.cpp ****             newFrag->addr=(cur->addr+cur->size); //racuna i zaglavlje
  71:src/MemoryAllocator.cpp ****             newFrag->free = 0;
  72:src/MemoryAllocator.cpp **** 
  73:src/MemoryAllocator.cpp ****             res = (void *) (newFrag->addr + sizeof(MemoryAllocator::Mem));
  74:src/MemoryAllocator.cpp ****         }
  75:src/MemoryAllocator.cpp **** 
  76:src/MemoryAllocator.cpp ****    }
  77:src/MemoryAllocator.cpp **** 
  78:src/MemoryAllocator.cpp ****     return res;
  79:src/MemoryAllocator.cpp **** 
  80:src/MemoryAllocator.cpp **** }
 236              		.loc 1 80 1
 237 0150 03348100 		ld	s0,8(sp)
 238              		.cfi_remember_state
 239              		.cfi_restore 8
GAS LISTING /tmp/cc8HQVLL.s 			page 7


 240              		.cfi_def_cfa 2, 16
 241 0154 13010101 		addi	sp,sp,16
 242              		.cfi_def_cfa_offset 0
 243 0158 67800000 		jr	ra
 244              	.LVL20:
 245              	.L18:
 246              		.cfi_restore_state
 247              	.LBB7:
 248              	.LBB5:
 249              	.LBB4:
  65:src/MemoryAllocator.cpp ****             cur->size -= size1;
 250              		.loc 1 65 13 is_stmt 1
  65:src/MemoryAllocator.cpp ****             cur->size -= size1;
 251              		.loc 1 65 75 is_stmt 0
 252 015c 83370501 		ld	a5,16(a0)
  65:src/MemoryAllocator.cpp ****             cur->size -= size1;
 253              		.loc 1 65 35
 254 0160 B387E700 		add	a5,a5,a4
 255              	.LVL21:
  66:src/MemoryAllocator.cpp ****             cur->next = newFrag;
 256              		.loc 1 66 13 is_stmt 1
  66:src/MemoryAllocator.cpp ****             cur->next = newFrag;
 257              		.loc 1 66 23 is_stmt 0
 258 0164 2334E500 		sd	a4,8(a0)
  67:src/MemoryAllocator.cpp ****             newFrag->next = cur->next;
 259              		.loc 1 67 13 is_stmt 1
  67:src/MemoryAllocator.cpp ****             newFrag->next = cur->next;
 260              		.loc 1 67 23 is_stmt 0
 261 0168 2330F500 		sd	a5,0(a0)
  68:src/MemoryAllocator.cpp ****             newFrag->size = size1;
 262              		.loc 1 68 13 is_stmt 1
  68:src/MemoryAllocator.cpp ****             newFrag->size = size1;
 263              		.loc 1 68 27 is_stmt 0
 264 016c 23B0F700 		sd	a5,0(a5)
  69:src/MemoryAllocator.cpp ****             newFrag->addr=(cur->addr+cur->size); //racuna i zaglavlje
 265              		.loc 1 69 13 is_stmt 1
  69:src/MemoryAllocator.cpp ****             newFrag->addr=(cur->addr+cur->size); //racuna i zaglavlje
 266              		.loc 1 69 27 is_stmt 0
 267 0170 23B4D700 		sd	a3,8(a5)
  70:src/MemoryAllocator.cpp ****             newFrag->free = 0;
 268              		.loc 1 70 13 is_stmt 1
  70:src/MemoryAllocator.cpp ****             newFrag->free = 0;
 269              		.loc 1 70 33 is_stmt 0
 270 0174 03370501 		ld	a4,16(a0)
  70:src/MemoryAllocator.cpp ****             newFrag->free = 0;
 271              		.loc 1 70 43
 272 0178 03358500 		ld	a0,8(a0)
 273              	.LVL22:
  70:src/MemoryAllocator.cpp ****             newFrag->free = 0;
 274              		.loc 1 70 37
 275 017c 3305A700 		add	a0,a4,a0
  70:src/MemoryAllocator.cpp ****             newFrag->free = 0;
 276              		.loc 1 70 26
 277 0180 23B8A700 		sd	a0,16(a5)
  71:src/MemoryAllocator.cpp **** 
 278              		.loc 1 71 13 is_stmt 1
  71:src/MemoryAllocator.cpp **** 
GAS LISTING /tmp/cc8HQVLL.s 			page 8


 279              		.loc 1 71 27 is_stmt 0
 280 0184 23AC0700 		sw	zero,24(a5)
  73:src/MemoryAllocator.cpp ****         }
 281              		.loc 1 73 13 is_stmt 1
  73:src/MemoryAllocator.cpp ****         }
 282              		.loc 1 73 17 is_stmt 0
 283 0188 13050502 		addi	a0,a0,32
 284              	.LVL23:
 285 018c 6FF05FFC 		j	.L12
 286              	.LVL24:
 287              	.L19:
 288              	.LBE4:
 289              	.LBE5:
 290              	.LBE7:
  42:src/MemoryAllocator.cpp ****     void *res= nullptr;
 291              		.loc 1 42 16
 292 0190 13050000 		li	a0,0
 293 0194 6FF0DFFB 		j	.L12
 294              	.LVL25:
 295              	.L22:
  43:src/MemoryAllocator.cpp ****     size_t size1=size+ sizeof(MemoryAllocator::Mem);
 296              		.loc 1 43 11
 297 0198 13050000 		li	a0,0
 298              	.LVL26:
 299 019c 6FF05FFB 		j	.L12
 300              		.cfi_endproc
 301              	.LFE2:
 303              		.align	2
 304              		.globl	_Z5mergePN15MemoryAllocator3MemE
 306              	_Z5mergePN15MemoryAllocator3MemE:
 307              	.LFB3:
  81:src/MemoryAllocator.cpp **** void merge(MemoryAllocator::Mem* temp){
 308              		.loc 1 81 39 is_stmt 1
 309              		.cfi_startproc
 310              	.LVL27:
 311 01a0 130101FF 		addi	sp,sp,-16
 312              		.cfi_def_cfa_offset 16
 313 01a4 23348100 		sd	s0,8(sp)
 314              		.cfi_offset 8, -8
 315 01a8 13040101 		addi	s0,sp,16
 316              		.cfi_def_cfa 8, 0
  82:src/MemoryAllocator.cpp **** 
  83:src/MemoryAllocator.cpp ****     if(temp== nullptr) return;
 317              		.loc 1 83 5
 318 01ac 63080500 		beqz	a0,.L24
  84:src/MemoryAllocator.cpp ****         if ((temp->free == 1) && (temp->next->free == 1) && temp->next && temp->addr + temp->size =
 319              		.loc 1 84 9
 320              		.loc 1 84 20 is_stmt 0
 321 01b0 03278501 		lw	a4,24(a0)
 322              		.loc 1 84 9
 323 01b4 93071000 		li	a5,1
 324 01b8 6308F700 		beq	a4,a5,.L27
 325              	.L24:
  85:src/MemoryAllocator.cpp ****             temp->size += (temp->next->size) + sizeof(MemoryAllocator::Mem);
  86:src/MemoryAllocator.cpp ****             temp->next = temp->next->next;
  87:src/MemoryAllocator.cpp **** 
  88:src/MemoryAllocator.cpp ****         }
GAS LISTING /tmp/cc8HQVLL.s 			page 9


  89:src/MemoryAllocator.cpp **** 
  90:src/MemoryAllocator.cpp **** }
 326              		.loc 1 90 1
 327 01bc 03348100 		ld	s0,8(sp)
 328              		.cfi_remember_state
 329              		.cfi_restore 8
 330              		.cfi_def_cfa 2, 16
 331 01c0 13010101 		addi	sp,sp,16
 332              		.cfi_def_cfa_offset 0
 333 01c4 67800000 		jr	ra
 334              	.L27:
 335              		.cfi_restore_state
  84:src/MemoryAllocator.cpp ****         if ((temp->free == 1) && (temp->next->free == 1) && temp->next && temp->addr + temp->size =
 336              		.loc 1 84 41 discriminator 1
 337 01c8 83370500 		ld	a5,0(a0)
  84:src/MemoryAllocator.cpp ****         if ((temp->free == 1) && (temp->next->free == 1) && temp->next && temp->addr + temp->size =
 338              		.loc 1 84 47 discriminator 1
 339 01cc 83A68701 		lw	a3,24(a5)
  84:src/MemoryAllocator.cpp ****         if ((temp->free == 1) && (temp->next->free == 1) && temp->next && temp->addr + temp->size =
 340              		.loc 1 84 31 discriminator 1
 341 01d0 13071000 		li	a4,1
 342 01d4 E394E6FE 		bne	a3,a4,.L24
  84:src/MemoryAllocator.cpp ****         if ((temp->free == 1) && (temp->next->free == 1) && temp->next && temp->addr + temp->size =
 343              		.loc 1 84 58 discriminator 2
 344 01d8 E38207FE 		beqz	a5,.L24
  84:src/MemoryAllocator.cpp ****         if ((temp->free == 1) && (temp->next->free == 1) && temp->next && temp->addr + temp->size =
 345              		.loc 1 84 81 discriminator 3
 346 01dc 03370501 		ld	a4,16(a0)
  84:src/MemoryAllocator.cpp ****         if ((temp->free == 1) && (temp->next->free == 1) && temp->next && temp->addr + temp->size =
 347              		.loc 1 84 94 discriminator 3
 348 01e0 83368500 		ld	a3,8(a0)
  84:src/MemoryAllocator.cpp ****         if ((temp->free == 1) && (temp->next->free == 1) && temp->next && temp->addr + temp->size =
 349              		.loc 1 84 86 discriminator 3
 350 01e4 3307D700 		add	a4,a4,a3
  84:src/MemoryAllocator.cpp ****         if ((temp->free == 1) && (temp->next->free == 1) && temp->next && temp->addr + temp->size =
 351              		.loc 1 84 114 discriminator 3
 352 01e8 03B60701 		ld	a2,16(a5)
  84:src/MemoryAllocator.cpp ****         if ((temp->free == 1) && (temp->next->free == 1) && temp->next && temp->addr + temp->size =
 353              		.loc 1 84 72 discriminator 3
 354 01ec E318C7FC 		bne	a4,a2,.L24
  85:src/MemoryAllocator.cpp ****             temp->size += (temp->next->size) + sizeof(MemoryAllocator::Mem);
 355              		.loc 1 85 13 is_stmt 1
  85:src/MemoryAllocator.cpp ****             temp->size += (temp->next->size) + sizeof(MemoryAllocator::Mem);
 356              		.loc 1 85 40 is_stmt 0
 357 01f0 03B78700 		ld	a4,8(a5)
  85:src/MemoryAllocator.cpp ****             temp->size += (temp->next->size) + sizeof(MemoryAllocator::Mem);
 358              		.loc 1 85 24
 359 01f4 B386E600 		add	a3,a3,a4
 360 01f8 93860602 		addi	a3,a3,32
 361 01fc 2334D500 		sd	a3,8(a0)
  86:src/MemoryAllocator.cpp **** 
 362              		.loc 1 86 13 is_stmt 1
  86:src/MemoryAllocator.cpp **** 
 363              		.loc 1 86 38 is_stmt 0
 364 0200 83B70700 		ld	a5,0(a5)
  86:src/MemoryAllocator.cpp **** 
 365              		.loc 1 86 24
GAS LISTING /tmp/cc8HQVLL.s 			page 10


 366 0204 2330F500 		sd	a5,0(a0)
 367 0208 6FF05FFB 		j	.L24
 368              		.cfi_endproc
 369              	.LFE3:
 371              		.align	2
 372              		.globl	_ZN15MemoryAllocator7memFreeEPv
 374              	_ZN15MemoryAllocator7memFreeEPv:
 375              	.LFB4:
  91:src/MemoryAllocator.cpp **** 
  92:src/MemoryAllocator.cpp **** int MemoryAllocator::memFree(void *ptr)  {
 376              		.loc 1 92 42 is_stmt 1
 377              		.cfi_startproc
 378              	.LVL28:
  93:src/MemoryAllocator.cpp ****     if(!ptr || !fmem_head || (char*)ptr<(char*)fmem_head)
 379              		.loc 1 93 5
 380 020c 630A0504 		beqz	a0,.L30
 381 0210 93070500 		mv	a5,a0
 382              		.loc 1 93 16 is_stmt 0 discriminator 1
 383 0214 17070000 		ld	a4,.LANCHOR0
 383      03370700 
 384              		.loc 1 93 13 discriminator 1
 385 021c 63060704 		beqz	a4,.L31
 386              		.loc 1 93 27 discriminator 2
 387 0220 6368E504 		bgtu	a4,a0,.L32
  94:src/MemoryAllocator.cpp ****         return -1;
  95:src/MemoryAllocator.cpp ****     MemoryAllocator::Mem* cur=(MemoryAllocator::Mem*)((char*)ptr-sizeof(MemoryAllocator::Mem));
 388              		.loc 1 95 5 is_stmt 1
 389              		.loc 1 95 27 is_stmt 0
 390 0224 130505FE 		addi	a0,a0,-32
 391              	.LVL29:
  96:src/MemoryAllocator.cpp ****     if(cur==nullptr)
 392              		.loc 1 96 5 is_stmt 1
 393 0228 63080504 		beqz	a0,.L33
  92:src/MemoryAllocator.cpp ****     if(!ptr || !fmem_head || (char*)ptr<(char*)fmem_head)
 394              		.loc 1 92 42 is_stmt 0
 395 022c 130101FF 		addi	sp,sp,-16
 396              		.cfi_def_cfa_offset 16
 397 0230 23341100 		sd	ra,8(sp)
 398 0234 23308100 		sd	s0,0(sp)
 399              		.cfi_offset 1, -8
 400              		.cfi_offset 8, -16
 401 0238 13040101 		addi	s0,sp,16
 402              		.cfi_def_cfa 8, 0
  97:src/MemoryAllocator.cpp ****         return -10;
  98:src/MemoryAllocator.cpp ****     cur->free=1;
 403              		.loc 1 98 5 is_stmt 1
 404              		.loc 1 98 14 is_stmt 0
 405 023c 13071000 		li	a4,1
 406 0240 23ACE7FE 		sw	a4,-8(a5)
  99:src/MemoryAllocator.cpp ****     merge(cur);
 407              		.loc 1 99 5 is_stmt 1
 408              		.loc 1 99 10 is_stmt 0
 409 0244 97000000 		call	_Z5mergePN15MemoryAllocator3MemE
 409      E7800000 
 410              	.LVL30:
 100:src/MemoryAllocator.cpp ****     return 0;
 411              		.loc 1 100 5 is_stmt 1
GAS LISTING /tmp/cc8HQVLL.s 			page 11


 412              		.loc 1 100 12 is_stmt 0
 413 024c 13050000 		li	a0,0
 101:src/MemoryAllocator.cpp **** 
 102:src/MemoryAllocator.cpp **** }
 414              		.loc 1 102 1
 415 0250 83308100 		ld	ra,8(sp)
 416              		.cfi_restore 1
 417 0254 03340100 		ld	s0,0(sp)
 418              		.cfi_restore 8
 419              		.cfi_def_cfa 2, 16
 420 0258 13010101 		addi	sp,sp,16
 421              		.cfi_def_cfa_offset 0
 422 025c 67800000 		jr	ra
 423              	.LVL31:
 424              	.L30:
  94:src/MemoryAllocator.cpp ****     MemoryAllocator::Mem* cur=(MemoryAllocator::Mem*)((char*)ptr-sizeof(MemoryAllocator::Mem));
 425              		.loc 1 94 17
 426 0260 1305F0FF 		li	a0,-1
 427              	.LVL32:
 428 0264 67800000 		ret
 429              	.LVL33:
 430              	.L31:
 431 0268 1305F0FF 		li	a0,-1
 432              	.LVL34:
 433 026c 67800000 		ret
 434              	.LVL35:
 435              	.L32:
 436 0270 1305F0FF 		li	a0,-1
 437              	.LVL36:
 438 0274 67800000 		ret
 439              	.LVL37:
 440              	.L33:
  97:src/MemoryAllocator.cpp ****     cur->free=1;
 441              		.loc 1 97 17
 442 0278 130560FF 		li	a0,-10
 443              	.LVL38:
 444              		.loc 1 102 1
 445 027c 67800000 		ret
 446              		.cfi_endproc
 447              	.LFE4:
 449              		.globl	_ZN15MemoryAllocator9fmem_headE
 450              		.section	.rodata.cst8,"aM",@progbits,8
 451              		.align	3
 452              	.LC0:
 453 0000 000064A7 		.dword	1000000000000000000
 453      B3B6E00D 
 454              		.bss
 455              		.align	3
 456              		.set	.LANCHOR0,. + 0
 459              	_ZN15MemoryAllocator9fmem_headE:
 460 0000 00000000 		.zero	8
 460      00000000 
 461              		.text
 462              	.Letext0:
 463              		.file 2 "src/../h/../lib/hw.h"
 464              		.file 3 "src/../h/MemoryAllocator.hpp"
GAS LISTING /tmp/cc8HQVLL.s 			page 12

