GAS LISTING /tmp/ccVVdSUh.s 			page 1


   1              		.file	"printing.cpp"
   2              		.option pic
   3              		.option norelax
   4              		.text
   5              	.Ltext0:
   6              		.align	2
   7              		.globl	_Z11printStringPKc
   9              	_Z11printStringPKc:
  10              	.LFB35:
  11              		.file 1 "src/printing.cpp"
   1:src/printing.cpp **** //
   2:src/printing.cpp **** // Created by os on 5/18/22.
   3:src/printing.cpp **** //
   4:src/printing.cpp **** 
   5:src/printing.cpp **** #include "../h/printing.hpp"
   6:src/printing.cpp **** 
   7:src/printing.cpp **** uint64 lockPrint = 0;
   8:src/printing.cpp **** 
   9:src/printing.cpp **** #define LOCK() while(copy_and_swap(lockPrint, 0, 1)){thread_dispatch();}
  10:src/printing.cpp **** #define UNLOCK() while(copy_and_swap(lockPrint, 1, 0)){thread_dispatch();}
  11:src/printing.cpp **** 
  12:src/printing.cpp **** void printString(char const *string)
  13:src/printing.cpp **** {
  12              		.loc 1 13 1
  13              		.cfi_startproc
  14              	.LVL0:
  15 0000 130101FE 		addi	sp,sp,-32
  16              		.cfi_def_cfa_offset 32
  17 0004 233C1100 		sd	ra,24(sp)
  18 0008 23388100 		sd	s0,16(sp)
  19 000c 23349100 		sd	s1,8(sp)
  20              		.cfi_offset 1, -8
  21              		.cfi_offset 8, -16
  22              		.cfi_offset 9, -24
  23 0010 13040102 		addi	s0,sp,32
  24              		.cfi_def_cfa 8, 0
  25 0014 93040500 		mv	s1,a0
  26              	.LVL1:
  27              	.L3:
  14:src/printing.cpp ****     LOCK();
  28              		.loc 1 14 5 discriminator 3
  29              		.loc 1 14 5 discriminator 3
  30 0018 13061000 		li	a2,1
  31 001c 93050000 		li	a1,0
  32 0020 17050000 		lla	a0,.LANCHOR0
  32      13050500 
  33 0028 97000000 		call	copy_and_swap@plt
  33      E7800000 
  34              	.LVL2:
  35 0030 63080500 		beqz	a0,.L2
  36              		.loc 1 14 5 discriminator 1
  37 0034 97000000 		call	_Z15thread_dispatchv@plt
  37      E7800000 
  38              	.LVL3:
  39 003c 6FF0DFFD 		j	.L3
  40              	.L2:
  41              		.loc 1 14 11 discriminator 2
GAS LISTING /tmp/ccVVdSUh.s 			page 2


  15:src/printing.cpp ****     while (*string != '\0')
  42              		.loc 1 15 5 discriminator 2
  43              		.loc 1 15 20 discriminator 2
  44              		.loc 1 15 12 is_stmt 0 discriminator 2
  45 0040 03C50400 		lbu	a0,0(s1)
  46              		.loc 1 15 20 discriminator 2
  47 0044 630A0500 		beqz	a0,.L4
  16:src/printing.cpp ****     {
  17:src/printing.cpp ****         putc(*string);
  48              		.loc 1 17 9 is_stmt 1
  49              		.loc 1 17 13 is_stmt 0
  50 0048 97000000 		call	_Z4putcc@plt
  50      E7800000 
  51              	.LVL4:
  18:src/printing.cpp ****         string++;
  52              		.loc 1 18 9 is_stmt 1
  53              		.loc 1 18 15 is_stmt 0
  54 0050 93841400 		addi	s1,s1,1
  55              	.LVL5:
  15:src/printing.cpp ****     while (*string != '\0')
  56              		.loc 1 15 5
  57 0054 6FF0DFFE 		j	.L2
  58              	.L4:
  19:src/printing.cpp ****     }
  20:src/printing.cpp ****     UNLOCK();
  59              		.loc 1 20 5 is_stmt 1 discriminator 3
  60              		.loc 1 20 5 discriminator 3
  61 0058 13060000 		li	a2,0
  62 005c 93051000 		li	a1,1
  63 0060 17050000 		lla	a0,.LANCHOR0
  63      13050500 
  64 0068 97000000 		call	copy_and_swap@plt
  64      E7800000 
  65              	.LVL6:
  66 0070 63080500 		beqz	a0,.L1
  67              		.loc 1 20 5 discriminator 1
  68 0074 97000000 		call	_Z15thread_dispatchv@plt
  68      E7800000 
  69              	.LVL7:
  70 007c 6FF0DFFD 		j	.L4
  71              	.L1:
  21:src/printing.cpp **** }
  72              		.loc 1 21 1 is_stmt 0
  73 0080 83308101 		ld	ra,24(sp)
  74              		.cfi_restore 1
  75 0084 03340101 		ld	s0,16(sp)
  76              		.cfi_restore 8
  77              		.cfi_def_cfa 2, 32
  78 0088 83348100 		ld	s1,8(sp)
  79              		.cfi_restore 9
  80              	.LVL8:
  81 008c 13010102 		addi	sp,sp,32
  82              		.cfi_def_cfa_offset 0
  83 0090 67800000 		jr	ra
  84              		.cfi_endproc
  85              	.LFE35:
  87              		.align	2
GAS LISTING /tmp/ccVVdSUh.s 			page 3


  88              		.globl	_Z9getStringPci
  90              	_Z9getStringPci:
  91              	.LFB36:
  22:src/printing.cpp **** 
  23:src/printing.cpp **** char* getString(char *buf, int max) {
  92              		.loc 1 23 37 is_stmt 1
  93              		.cfi_startproc
  94              	.LVL9:
  95 0094 130101FD 		addi	sp,sp,-48
  96              		.cfi_def_cfa_offset 48
  97 0098 23341102 		sd	ra,40(sp)
  98 009c 23308102 		sd	s0,32(sp)
  99 00a0 233C9100 		sd	s1,24(sp)
 100 00a4 23382101 		sd	s2,16(sp)
 101 00a8 23343101 		sd	s3,8(sp)
 102 00ac 23304101 		sd	s4,0(sp)
 103              		.cfi_offset 1, -8
 104              		.cfi_offset 8, -16
 105              		.cfi_offset 9, -24
 106              		.cfi_offset 18, -32
 107              		.cfi_offset 19, -40
 108              		.cfi_offset 20, -48
 109 00b0 13040103 		addi	s0,sp,48
 110              		.cfi_def_cfa 8, 0
 111 00b4 93090500 		mv	s3,a0
 112 00b8 138A0500 		mv	s4,a1
 113              	.LVL10:
 114              	.L9:
  24:src/printing.cpp ****     LOCK();
 115              		.loc 1 24 5 discriminator 3
 116              		.loc 1 24 5 discriminator 3
 117 00bc 13061000 		li	a2,1
 118 00c0 93050000 		li	a1,0
 119 00c4 17050000 		lla	a0,.LANCHOR0
 119      13050500 
 120 00cc 97000000 		call	copy_and_swap@plt
 120      E7800000 
 121              	.LVL11:
 122 00d4 63080500 		beqz	a0,.L13
 123              		.loc 1 24 5 discriminator 1
 124 00d8 97000000 		call	_Z15thread_dispatchv@plt
 124      E7800000 
 125              	.LVL12:
 126 00e0 6FF0DFFD 		j	.L9
 127              	.L13:
  25:src/printing.cpp ****     int i, cc;
  26:src/printing.cpp ****     char c;
  27:src/printing.cpp **** 
  28:src/printing.cpp ****     for(i=0; i+1 < max; ){
 128              		.loc 1 28 10 is_stmt 0
 129 00e4 13090000 		li	s2,0
 130              	.L8:
 131              	.LVL13:
 132              		.loc 1 28 18 is_stmt 1 discriminator 1
 133 00e8 93040900 		mv	s1,s2
 134              		.loc 1 28 15 is_stmt 0 discriminator 1
 135 00ec 1B091900 		addiw	s2,s2,1
GAS LISTING /tmp/ccVVdSUh.s 			page 4


 136              	.LVL14:
 137              		.loc 1 28 18 discriminator 1
 138 00f0 635A4903 		bge	s2,s4,.L10
  29:src/printing.cpp ****         cc = getc();
 139              		.loc 1 29 9 is_stmt 1
 140              		.loc 1 29 18 is_stmt 0
 141 00f4 97000000 		call	_Z4getcv@plt
 141      E7800000 
 142              	.LVL15:
  30:src/printing.cpp ****         if(cc < 1)
 143              		.loc 1 30 9 is_stmt 1
 144 00fc 63040502 		beqz	a0,.L10
  31:src/printing.cpp ****             break;
  32:src/printing.cpp ****         c = cc;
 145              		.loc 1 32 9
 146              	.LVL16:
  33:src/printing.cpp ****         buf[i++] = c;
 147              		.loc 1 33 9
 148              		.loc 1 33 16 is_stmt 0
 149 0100 B3849900 		add	s1,s3,s1
 150              		.loc 1 33 18
 151 0104 2380A400 		sb	a0,0(s1)
  34:src/printing.cpp ****         if(c == '\n' || c == '\r')
 152              		.loc 1 34 9 is_stmt 1
 153 0108 9307A000 		li	a5,10
 154 010c 630AF500 		beq	a0,a5,.L14
 155              		.loc 1 34 22 is_stmt 0 discriminator 1
 156 0110 9307D000 		li	a5,13
 157 0114 E31AF5FC 		bne	a0,a5,.L8
  33:src/printing.cpp ****         buf[i++] = c;
 158              		.loc 1 33 14
 159 0118 93040900 		mv	s1,s2
 160 011c 6F008000 		j	.L10
 161              	.L14:
 162 0120 93040900 		mv	s1,s2
 163              	.LVL17:
 164              	.L10:
  35:src/printing.cpp ****             break;
  36:src/printing.cpp ****     }
  37:src/printing.cpp ****     buf[i] = '\0';
 165              		.loc 1 37 5 is_stmt 1
 166              		.loc 1 37 10 is_stmt 0
 167 0124 B3849900 		add	s1,s3,s1
 168              	.LVL18:
 169              		.loc 1 37 12
 170 0128 23800400 		sb	zero,0(s1)
 171              	.L12:
  38:src/printing.cpp **** 
  39:src/printing.cpp ****     UNLOCK();
 172              		.loc 1 39 5 is_stmt 1 discriminator 3
 173              		.loc 1 39 5 discriminator 3
 174 012c 13060000 		li	a2,0
 175 0130 93051000 		li	a1,1
 176 0134 17050000 		lla	a0,.LANCHOR0
 176      13050500 
 177 013c 97000000 		call	copy_and_swap@plt
 177      E7800000 
GAS LISTING /tmp/ccVVdSUh.s 			page 5


 178              	.LVL19:
 179 0144 63080500 		beqz	a0,.L11
 180              		.loc 1 39 5 discriminator 1
 181 0148 97000000 		call	_Z15thread_dispatchv@plt
 181      E7800000 
 182              	.LVL20:
 183 0150 6FF0DFFD 		j	.L12
 184              	.L11:
 185              		.loc 1 39 13 discriminator 2
  40:src/printing.cpp ****     return buf;
 186              		.loc 1 40 5 discriminator 2
  41:src/printing.cpp **** }
 187              		.loc 1 41 1 is_stmt 0 discriminator 2
 188 0154 13850900 		mv	a0,s3
 189 0158 83308102 		ld	ra,40(sp)
 190              		.cfi_restore 1
 191 015c 03340102 		ld	s0,32(sp)
 192              		.cfi_restore 8
 193              		.cfi_def_cfa 2, 48
 194 0160 83348101 		ld	s1,24(sp)
 195              		.cfi_restore 9
 196 0164 03390101 		ld	s2,16(sp)
 197              		.cfi_restore 18
 198 0168 83398100 		ld	s3,8(sp)
 199              		.cfi_restore 19
 200              	.LVL21:
 201 016c 033A0100 		ld	s4,0(sp)
 202              		.cfi_restore 20
 203 0170 13010103 		addi	sp,sp,48
 204              		.cfi_def_cfa_offset 0
 205 0174 67800000 		jr	ra
 206              		.cfi_endproc
 207              	.LFE36:
 209              		.align	2
 210              		.globl	_Z11stringToIntPKc
 212              	_Z11stringToIntPKc:
 213              	.LFB37:
  42:src/printing.cpp **** 
  43:src/printing.cpp **** int stringToInt(const char *s) {
 214              		.loc 1 43 32 is_stmt 1
 215              		.cfi_startproc
 216              	.LVL22:
 217 0178 130101FF 		addi	sp,sp,-16
 218              		.cfi_def_cfa_offset 16
 219 017c 23348100 		sd	s0,8(sp)
 220              		.cfi_offset 8, -8
 221 0180 13040101 		addi	s0,sp,16
 222              		.cfi_def_cfa 8, 0
 223 0184 93060500 		mv	a3,a0
  44:src/printing.cpp ****     int n;
 224              		.loc 1 44 5
  45:src/printing.cpp **** 
  46:src/printing.cpp ****     n = 0;
 225              		.loc 1 46 5
 226              	.LVL23:
 227              		.loc 1 46 7 is_stmt 0
 228 0188 13050000 		li	a0,0
GAS LISTING /tmp/ccVVdSUh.s 			page 6


 229              	.LVL24:
 230              	.L18:
  47:src/printing.cpp ****     while ('0' <= *s && *s <= '9')
 231              		.loc 1 47 5 is_stmt 1
 232              		.loc 1 47 22
 233              		.loc 1 47 19 is_stmt 0
 234 018c 03C60600 		lbu	a2,0(a3)
 235              		.loc 1 47 22
 236 0190 1B0706FD 		addiw	a4,a2,-48
 237 0194 1377F70F 		andi	a4,a4,0xff
 238 0198 93079000 		li	a5,9
 239 019c 63E0E702 		bgtu	a4,a5,.L17
  48:src/printing.cpp ****         n = n * 10 + *s++ - '0';
 240              		.loc 1 48 9 is_stmt 1
 241              		.loc 1 48 15 is_stmt 0
 242 01a0 9B172500 		slliw	a5,a0,2
 243 01a4 BB87A700 		addw	a5,a5,a0
 244 01a8 9B971700 		slliw	a5,a5,1
 245              		.loc 1 48 24
 246 01ac 93861600 		addi	a3,a3,1
 247              	.LVL25:
 248              		.loc 1 48 20
 249 01b0 BB87C700 		addw	a5,a5,a2
 250              		.loc 1 48 11
 251 01b4 1B8507FD 		addiw	a0,a5,-48
 252              	.LVL26:
  47:src/printing.cpp ****     while ('0' <= *s && *s <= '9')
 253              		.loc 1 47 5
 254 01b8 6FF05FFD 		j	.L18
 255              	.LVL27:
 256              	.L17:
  49:src/printing.cpp ****     return n;
 257              		.loc 1 49 5 is_stmt 1
  50:src/printing.cpp **** }
 258              		.loc 1 50 1 is_stmt 0
 259 01bc 03348100 		ld	s0,8(sp)
 260              		.cfi_restore 8
 261              		.cfi_def_cfa 2, 16
 262 01c0 13010101 		addi	sp,sp,16
 263              		.cfi_def_cfa_offset 0
 264 01c4 67800000 		jr	ra
 265              		.cfi_endproc
 266              	.LFE37:
 268              		.align	2
 269              		.globl	_Z8printIntiii
 271              	_Z8printIntiii:
 272              	.LFB38:
  51:src/printing.cpp **** 
  52:src/printing.cpp **** char digits[] = "0123456789ABCDEF";
  53:src/printing.cpp **** 
  54:src/printing.cpp **** void printInt(int xx, int base, int sgn)
  55:src/printing.cpp **** {
 273              		.loc 1 55 1 is_stmt 1
 274              		.cfi_startproc
 275              	.LVL28:
 276 01c8 130101FC 		addi	sp,sp,-64
 277              		.cfi_def_cfa_offset 64
GAS LISTING /tmp/ccVVdSUh.s 			page 7


 278 01cc 233C1102 		sd	ra,56(sp)
 279 01d0 23388102 		sd	s0,48(sp)
 280 01d4 23349102 		sd	s1,40(sp)
 281 01d8 23302103 		sd	s2,32(sp)
 282 01dc 233C3101 		sd	s3,24(sp)
 283              		.cfi_offset 1, -8
 284              		.cfi_offset 8, -16
 285              		.cfi_offset 9, -24
 286              		.cfi_offset 18, -32
 287              		.cfi_offset 19, -40
 288 01e0 13040104 		addi	s0,sp,64
 289              		.cfi_def_cfa 8, 0
 290 01e4 93040500 		mv	s1,a0
 291 01e8 13890500 		mv	s2,a1
 292 01ec 93090600 		mv	s3,a2
 293              	.LVL29:
 294              	.L22:
  56:src/printing.cpp ****     LOCK();
 295              		.loc 1 56 5
 296              		.loc 1 56 5
 297 01f0 13061000 		li	a2,1
 298 01f4 93050000 		li	a1,0
 299 01f8 17050000 		lla	a0,.LANCHOR0
 299      13050500 
 300 0200 97000000 		call	copy_and_swap@plt
 300      E7800000 
 301              	.LVL30:
 302 0208 63080500 		beqz	a0,.L21
 303              		.loc 1 56 5 discriminator 2
 304 020c 97000000 		call	_Z15thread_dispatchv@plt
 304      E7800000 
 305              	.LVL31:
 306 0214 6FF0DFFD 		j	.L22
 307              	.L21:
 308              		.loc 1 56 11 discriminator 3
  57:src/printing.cpp ****     char buf[16];
 309              		.loc 1 57 5 discriminator 3
  58:src/printing.cpp ****     int i, neg;
 310              		.loc 1 58 5 discriminator 3
  59:src/printing.cpp ****     uint x;
 311              		.loc 1 59 5 discriminator 3
  60:src/printing.cpp **** 
  61:src/printing.cpp ****     neg = 0;
 312              		.loc 1 61 5 discriminator 3
 313              	.LVL32:
  62:src/printing.cpp ****     if(sgn && xx < 0){
 314              		.loc 1 62 5 discriminator 3
 315 0218 63840900 		beqz	s3,.L23
 316              		.loc 1 62 12 is_stmt 0 discriminator 1
 317 021c 63C40408 		bltz	s1,.L31
 318              	.L23:
  63:src/printing.cpp ****         neg = 1;
  64:src/printing.cpp ****         x = -xx;
  65:src/printing.cpp ****     } else {
  66:src/printing.cpp ****         x = xx;
 319              		.loc 1 66 9 is_stmt 1
 320              		.loc 1 66 11 is_stmt 0
GAS LISTING /tmp/ccVVdSUh.s 			page 8


 321 0220 1B850400 		sext.w	a0,s1
 322              	.LVL33:
  61:src/printing.cpp ****     if(sgn && xx < 0){
 323              		.loc 1 61 9
 324 0224 93050000 		li	a1,0
 325              	.LVL34:
 326              	.L24:
  67:src/printing.cpp ****     }
  68:src/printing.cpp **** 
  69:src/printing.cpp ****     i = 0;
 327              		.loc 1 69 5 is_stmt 1
 328              		.loc 1 69 7 is_stmt 0
 329 0228 93040000 		li	s1,0
 330              	.LVL35:
 331              	.L25:
  70:src/printing.cpp ****     do{
 332              		.loc 1 70 5 is_stmt 1
  71:src/printing.cpp ****         buf[i++] = digits[x % base];
 333              		.loc 1 71 9
 334              		.loc 1 71 31 is_stmt 0
 335 022c 9B070900 		sext.w	a5,s2
 336              		.loc 1 71 29
 337 0230 3B772503 		remuw	a4,a0,s2
 338 0234 13860400 		mv	a2,s1
 339              		.loc 1 71 14
 340 0238 9B841400 		addiw	s1,s1,1
 341              	.LVL36:
 342              		.loc 1 71 35
 343 023c 93160702 		slli	a3,a4,32
 344 0240 93D60602 		srli	a3,a3,32
 345 0244 17070000 		lla	a4,.LANCHOR1
 345      13070700 
 346 024c 3307D700 		add	a4,a4,a3
 347 0250 83460700 		lbu	a3,0(a4)
 348              		.loc 1 71 18
 349 0254 130704FD 		addi	a4,s0,-48
 350 0258 3307C700 		add	a4,a4,a2
 351 025c 2308D7FE 		sb	a3,-16(a4)
  72:src/printing.cpp ****     }while((x /= base) != 0);
 352              		.loc 1 72 24 is_stmt 1
 353 0260 1B070500 		sext.w	a4,a0
 354              		.loc 1 72 15 is_stmt 0
 355 0264 3B552503 		divuw	a0,a0,s2
 356              	.LVL37:
 357              		.loc 1 72 24
 358 0268 E372F7FC 		bleu	a5,a4,.L25
  73:src/printing.cpp ****     if(neg)
 359              		.loc 1 73 5 is_stmt 1
 360 026c 638C0500 		beqz	a1,.L28
  74:src/printing.cpp ****         buf[i++] = '-';
 361              		.loc 1 74 9
 362              	.LVL38:
 363              		.loc 1 74 18 is_stmt 0
 364 0270 930704FD 		addi	a5,s0,-48
 365 0274 B3849700 		add	s1,a5,s1
 366 0278 9307D002 		li	a5,45
 367 027c 2388F4FE 		sb	a5,-16(s1)
GAS LISTING /tmp/ccVVdSUh.s 			page 9


 368              		.loc 1 74 14
 369 0280 9B042600 		addiw	s1,a2,2
 370              	.LVL39:
 371              	.L28:
  75:src/printing.cpp **** 
  76:src/printing.cpp ****     while(--i >= 0)
 372              		.loc 1 76 5 is_stmt 1
 373              		.loc 1 76 15
 374 0284 9B84F4FF 		addiw	s1,s1,-1
 375              	.LVL40:
 376 0288 63C80402 		bltz	s1,.L27
  77:src/printing.cpp ****         putc(buf[i]);
 377              		.loc 1 77 9
 378              		.loc 1 77 13 is_stmt 0
 379 028c 930704FD 		addi	a5,s0,-48
 380 0290 B3879700 		add	a5,a5,s1
 381 0294 03C507FF 		lbu	a0,-16(a5)
 382 0298 97000000 		call	_Z4putcc@plt
 382      E7800000 
 383              	.LVL41:
 384 02a0 6FF05FFE 		j	.L28
 385              	.LVL42:
 386              	.L31:
  63:src/printing.cpp ****         x = -xx;
 387              		.loc 1 63 9 is_stmt 1
  64:src/printing.cpp ****     } else {
 388              		.loc 1 64 9
  64:src/printing.cpp ****     } else {
 389              		.loc 1 64 11 is_stmt 0
 390 02a4 3B059040 		negw	a0,s1
 391              	.LVL43:
  63:src/printing.cpp ****         x = -xx;
 392              		.loc 1 63 13
 393 02a8 93051000 		li	a1,1
  64:src/printing.cpp ****     } else {
 394              		.loc 1 64 11
 395 02ac 6FF0DFF7 		j	.L24
 396              	.LVL44:
 397              	.L32:
  78:src/printing.cpp **** 
  79:src/printing.cpp ****     UNLOCK();
 398              		.loc 1 79 5 is_stmt 1 discriminator 2
 399 02b0 97000000 		call	_Z15thread_dispatchv@plt
 399      E7800000 
 400              	.LVL45:
 401              	.L27:
 402              		.loc 1 79 5
 403              		.loc 1 79 5
 404 02b8 13060000 		li	a2,0
 405 02bc 93051000 		li	a1,1
 406 02c0 17050000 		lla	a0,.LANCHOR0
 406      13050500 
 407 02c8 97000000 		call	copy_and_swap@plt
 407      E7800000 
 408              	.LVL46:
 409 02d0 E31005FE 		bnez	a0,.L32
  80:src/printing.cpp **** }...
GAS LISTING /tmp/ccVVdSUh.s 			page 10


 410              		.loc 1 80 1 is_stmt 0
 411 02d4 83308103 		ld	ra,56(sp)
 412              		.cfi_restore 1
 413 02d8 03340103 		ld	s0,48(sp)
 414              		.cfi_restore 8
 415              		.cfi_def_cfa 2, 64
 416 02dc 83348102 		ld	s1,40(sp)
 417              		.cfi_restore 9
 418 02e0 03390102 		ld	s2,32(sp)
 419              		.cfi_restore 18
 420 02e4 83398101 		ld	s3,24(sp)
 421              		.cfi_restore 19
 422 02e8 13010104 		addi	sp,sp,64
 423              		.cfi_def_cfa_offset 0
 424 02ec 67800000 		jr	ra
 425              		.cfi_endproc
 426              	.LFE38:
 428              		.globl	digits
 429              		.globl	lockPrint
 430              		.data
 431              		.align	3
 432              		.set	.LANCHOR1,. + 0
 435              	digits:
 436 0000 30313233 		.string	"0123456789ABCDEF"
 436      34353637 
 436      38394142 
 436      43444546 
 436      00
 437              		.bss
 438              		.align	3
 439              		.set	.LANCHOR0,. + 0
 442              	lockPrint:
 443 0000 00000000 		.zero	8
 443      00000000 
 444              		.text
 445              	.Letext0:
 446              		.file 2 "src/../h/../h/../h/../lib/hw.h"
 447              		.file 3 "src/../h/../h/syscall_c.hpp"
 448              		.file 4 "src/../h/printing.hpp"
GAS LISTING /tmp/ccVVdSUh.s 			page 11


DEFINED SYMBOLS
                            *ABS*:0000000000000000 printing.cpp
     /tmp/ccVVdSUh.s:9      .text:0000000000000000 _Z11printStringPKc
     /tmp/ccVVdSUh.s:13     .text:0000000000000000 .L0 
     /tmp/ccVVdSUh.s:15     .text:0000000000000000 .L0 
     /tmp/ccVVdSUh.s:16     .text:0000000000000004 .L0 
     /tmp/ccVVdSUh.s:20     .text:0000000000000010 .L0 
     /tmp/ccVVdSUh.s:21     .text:0000000000000010 .L0 
     /tmp/ccVVdSUh.s:22     .text:0000000000000010 .L0 
     /tmp/ccVVdSUh.s:24     .text:0000000000000014 .L0 
     /tmp/ccVVdSUh.s:29     .text:0000000000000018 .L0 
     /tmp/ccVVdSUh.s:30     .text:0000000000000018 .L0 
     /tmp/ccVVdSUh.s:37     .text:0000000000000034 .L0 
     /tmp/ccVVdSUh.s:42     .text:0000000000000040 .L0 
     /tmp/ccVVdSUh.s:43     .text:0000000000000040 .L0 
     /tmp/ccVVdSUh.s:44     .text:0000000000000040 .L0 
     /tmp/ccVVdSUh.s:45     .text:0000000000000040 .L0 
     /tmp/ccVVdSUh.s:47     .text:0000000000000044 .L0 
     /tmp/ccVVdSUh.s:49     .text:0000000000000048 .L0 
     /tmp/ccVVdSUh.s:50     .text:0000000000000048 .L0 
     /tmp/ccVVdSUh.s:53     .text:0000000000000050 .L0 
     /tmp/ccVVdSUh.s:54     .text:0000000000000050 .L0 
     /tmp/ccVVdSUh.s:57     .text:0000000000000054 .L0 
     /tmp/ccVVdSUh.s:60     .text:0000000000000058 .L0 
     /tmp/ccVVdSUh.s:61     .text:0000000000000058 .L0 
     /tmp/ccVVdSUh.s:68     .text:0000000000000074 .L0 
     /tmp/ccVVdSUh.s:73     .text:0000000000000080 .L0 
     /tmp/ccVVdSUh.s:74     .text:0000000000000084 .L0 
     /tmp/ccVVdSUh.s:76     .text:0000000000000088 .L0 
     /tmp/ccVVdSUh.s:77     .text:0000000000000088 .L0 
     /tmp/ccVVdSUh.s:79     .text:000000000000008c .L0 
     /tmp/ccVVdSUh.s:82     .text:0000000000000090 .L0 
     /tmp/ccVVdSUh.s:84     .text:0000000000000094 .L0 
     /tmp/ccVVdSUh.s:90     .text:0000000000000094 _Z9getStringPci
     /tmp/ccVVdSUh.s:93     .text:0000000000000094 .L0 
     /tmp/ccVVdSUh.s:95     .text:0000000000000094 .L0 
     /tmp/ccVVdSUh.s:96     .text:0000000000000098 .L0 
     /tmp/ccVVdSUh.s:103    .text:00000000000000b0 .L0 
     /tmp/ccVVdSUh.s:104    .text:00000000000000b0 .L0 
     /tmp/ccVVdSUh.s:105    .text:00000000000000b0 .L0 
     /tmp/ccVVdSUh.s:106    .text:00000000000000b0 .L0 
     /tmp/ccVVdSUh.s:107    .text:00000000000000b0 .L0 
     /tmp/ccVVdSUh.s:108    .text:00000000000000b0 .L0 
     /tmp/ccVVdSUh.s:110    .text:00000000000000b4 .L0 
     /tmp/ccVVdSUh.s:116    .text:00000000000000bc .L0 
     /tmp/ccVVdSUh.s:117    .text:00000000000000bc .L0 
     /tmp/ccVVdSUh.s:124    .text:00000000000000d8 .L0 
     /tmp/ccVVdSUh.s:129    .text:00000000000000e4 .L0 
     /tmp/ccVVdSUh.s:133    .text:00000000000000e8 .L0 
     /tmp/ccVVdSUh.s:135    .text:00000000000000ec .L0 
     /tmp/ccVVdSUh.s:138    .text:00000000000000f0 .L0 
     /tmp/ccVVdSUh.s:140    .text:00000000000000f4 .L0 
     /tmp/ccVVdSUh.s:141    .text:00000000000000f4 .L0 
     /tmp/ccVVdSUh.s:144    .text:00000000000000fc .L0 
     /tmp/ccVVdSUh.s:147    .text:0000000000000100 .L0 
     /tmp/ccVVdSUh.s:148    .text:0000000000000100 .L0 
     /tmp/ccVVdSUh.s:149    .text:0000000000000100 .L0 
GAS LISTING /tmp/ccVVdSUh.s 			page 12


     /tmp/ccVVdSUh.s:151    .text:0000000000000104 .L0 
     /tmp/ccVVdSUh.s:153    .text:0000000000000108 .L0 
     /tmp/ccVVdSUh.s:156    .text:0000000000000110 .L0 
     /tmp/ccVVdSUh.s:159    .text:0000000000000118 .L0 
     /tmp/ccVVdSUh.s:166    .text:0000000000000124 .L0 
     /tmp/ccVVdSUh.s:167    .text:0000000000000124 .L0 
     /tmp/ccVVdSUh.s:170    .text:0000000000000128 .L0 
     /tmp/ccVVdSUh.s:173    .text:000000000000012c .L0 
     /tmp/ccVVdSUh.s:174    .text:000000000000012c .L0 
     /tmp/ccVVdSUh.s:181    .text:0000000000000148 .L0 
     /tmp/ccVVdSUh.s:186    .text:0000000000000154 .L0 
     /tmp/ccVVdSUh.s:187    .text:0000000000000154 .L0 
     /tmp/ccVVdSUh.s:188    .text:0000000000000154 .L0 
     /tmp/ccVVdSUh.s:190    .text:000000000000015c .L0 
     /tmp/ccVVdSUh.s:192    .text:0000000000000160 .L0 
     /tmp/ccVVdSUh.s:193    .text:0000000000000160 .L0 
     /tmp/ccVVdSUh.s:195    .text:0000000000000164 .L0 
     /tmp/ccVVdSUh.s:197    .text:0000000000000168 .L0 
     /tmp/ccVVdSUh.s:199    .text:000000000000016c .L0 
     /tmp/ccVVdSUh.s:202    .text:0000000000000170 .L0 
     /tmp/ccVVdSUh.s:204    .text:0000000000000174 .L0 
     /tmp/ccVVdSUh.s:206    .text:0000000000000178 .L0 
     /tmp/ccVVdSUh.s:212    .text:0000000000000178 _Z11stringToIntPKc
     /tmp/ccVVdSUh.s:215    .text:0000000000000178 .L0 
     /tmp/ccVVdSUh.s:217    .text:0000000000000178 .L0 
     /tmp/ccVVdSUh.s:218    .text:000000000000017c .L0 
     /tmp/ccVVdSUh.s:220    .text:0000000000000180 .L0 
     /tmp/ccVVdSUh.s:222    .text:0000000000000184 .L0 
     /tmp/ccVVdSUh.s:225    .text:0000000000000188 .L0 
     /tmp/ccVVdSUh.s:227    .text:0000000000000188 .L0 
     /tmp/ccVVdSUh.s:228    .text:0000000000000188 .L0 
     /tmp/ccVVdSUh.s:232    .text:000000000000018c .L0 
     /tmp/ccVVdSUh.s:233    .text:000000000000018c .L0 
     /tmp/ccVVdSUh.s:234    .text:000000000000018c .L0 
     /tmp/ccVVdSUh.s:236    .text:0000000000000190 .L0 
     /tmp/ccVVdSUh.s:241    .text:00000000000001a0 .L0 
     /tmp/ccVVdSUh.s:242    .text:00000000000001a0 .L0 
     /tmp/ccVVdSUh.s:246    .text:00000000000001ac .L0 
     /tmp/ccVVdSUh.s:249    .text:00000000000001b0 .L0 
     /tmp/ccVVdSUh.s:251    .text:00000000000001b4 .L0 
     /tmp/ccVVdSUh.s:254    .text:00000000000001b8 .L0 
     /tmp/ccVVdSUh.s:258    .text:00000000000001bc .L0 
     /tmp/ccVVdSUh.s:259    .text:00000000000001bc .L0 
     /tmp/ccVVdSUh.s:260    .text:00000000000001c0 .L0 
     /tmp/ccVVdSUh.s:261    .text:00000000000001c0 .L0 
     /tmp/ccVVdSUh.s:263    .text:00000000000001c4 .L0 
     /tmp/ccVVdSUh.s:265    .text:00000000000001c8 .L0 
     /tmp/ccVVdSUh.s:271    .text:00000000000001c8 _Z8printIntiii
     /tmp/ccVVdSUh.s:274    .text:00000000000001c8 .L0 
     /tmp/ccVVdSUh.s:276    .text:00000000000001c8 .L0 
     /tmp/ccVVdSUh.s:277    .text:00000000000001cc .L0 
     /tmp/ccVVdSUh.s:283    .text:00000000000001e0 .L0 
     /tmp/ccVVdSUh.s:284    .text:00000000000001e0 .L0 
     /tmp/ccVVdSUh.s:285    .text:00000000000001e0 .L0 
     /tmp/ccVVdSUh.s:286    .text:00000000000001e0 .L0 
     /tmp/ccVVdSUh.s:287    .text:00000000000001e0 .L0 
     /tmp/ccVVdSUh.s:289    .text:00000000000001e4 .L0 
GAS LISTING /tmp/ccVVdSUh.s 			page 13


     /tmp/ccVVdSUh.s:296    .text:00000000000001f0 .L0 
     /tmp/ccVVdSUh.s:297    .text:00000000000001f0 .L0 
     /tmp/ccVVdSUh.s:304    .text:000000000000020c .L0 
     /tmp/ccVVdSUh.s:309    .text:0000000000000218 .L0 
     /tmp/ccVVdSUh.s:310    .text:0000000000000218 .L0 
     /tmp/ccVVdSUh.s:311    .text:0000000000000218 .L0 
     /tmp/ccVVdSUh.s:312    .text:0000000000000218 .L0 
     /tmp/ccVVdSUh.s:314    .text:0000000000000218 .L0 
     /tmp/ccVVdSUh.s:315    .text:0000000000000218 .L0 
     /tmp/ccVVdSUh.s:317    .text:000000000000021c .L0 
     /tmp/ccVVdSUh.s:320    .text:0000000000000220 .L0 
     /tmp/ccVVdSUh.s:321    .text:0000000000000220 .L0 
     /tmp/ccVVdSUh.s:324    .text:0000000000000224 .L0 
     /tmp/ccVVdSUh.s:328    .text:0000000000000228 .L0 
     /tmp/ccVVdSUh.s:329    .text:0000000000000228 .L0 
     /tmp/ccVVdSUh.s:333    .text:000000000000022c .L0 
     /tmp/ccVVdSUh.s:334    .text:000000000000022c .L0 
     /tmp/ccVVdSUh.s:335    .text:000000000000022c .L0 
     /tmp/ccVVdSUh.s:337    .text:0000000000000230 .L0 
     /tmp/ccVVdSUh.s:340    .text:0000000000000238 .L0 
     /tmp/ccVVdSUh.s:343    .text:000000000000023c .L0 
     /tmp/ccVVdSUh.s:349    .text:0000000000000254 .L0 
     /tmp/ccVVdSUh.s:353    .text:0000000000000260 .L0 
     /tmp/ccVVdSUh.s:355    .text:0000000000000264 .L0 
     /tmp/ccVVdSUh.s:358    .text:0000000000000268 .L0 
     /tmp/ccVVdSUh.s:360    .text:000000000000026c .L0 
     /tmp/ccVVdSUh.s:363    .text:0000000000000270 .L0 
     /tmp/ccVVdSUh.s:364    .text:0000000000000270 .L0 
     /tmp/ccVVdSUh.s:369    .text:0000000000000280 .L0 
     /tmp/ccVVdSUh.s:373    .text:0000000000000284 .L0 
     /tmp/ccVVdSUh.s:374    .text:0000000000000284 .L0 
     /tmp/ccVVdSUh.s:378    .text:000000000000028c .L0 
     /tmp/ccVVdSUh.s:379    .text:000000000000028c .L0 
     /tmp/ccVVdSUh.s:388    .text:00000000000002a4 .L0 
     /tmp/ccVVdSUh.s:389    .text:00000000000002a4 .L0 
     /tmp/ccVVdSUh.s:390    .text:00000000000002a4 .L0 
     /tmp/ccVVdSUh.s:393    .text:00000000000002a8 .L0 
     /tmp/ccVVdSUh.s:395    .text:00000000000002ac .L0 
     /tmp/ccVVdSUh.s:399    .text:00000000000002b0 .L0 
     /tmp/ccVVdSUh.s:403    .text:00000000000002b8 .L0 
     /tmp/ccVVdSUh.s:404    .text:00000000000002b8 .L0 
     /tmp/ccVVdSUh.s:411    .text:00000000000002d4 .L0 
     /tmp/ccVVdSUh.s:412    .text:00000000000002d8 .L0 
     /tmp/ccVVdSUh.s:414    .text:00000000000002dc .L0 
     /tmp/ccVVdSUh.s:415    .text:00000000000002dc .L0 
     /tmp/ccVVdSUh.s:417    .text:00000000000002e0 .L0 
     /tmp/ccVVdSUh.s:419    .text:00000000000002e4 .L0 
     /tmp/ccVVdSUh.s:421    .text:00000000000002e8 .L0 
     /tmp/ccVVdSUh.s:423    .text:00000000000002ec .L0 
     /tmp/ccVVdSUh.s:425    .text:00000000000002f0 .L0 
     /tmp/ccVVdSUh.s:435    .data:0000000000000000 digits
     /tmp/ccVVdSUh.s:442    .bss:0000000000000000 lockPrint
     /tmp/ccVVdSUh.s:432    .data:0000000000000000 .LANCHOR1
     /tmp/ccVVdSUh.s:439    .bss:0000000000000000 .LANCHOR0
     /tmp/ccVVdSUh.s:449    .text:00000000000002f0 .L0 
     /tmp/ccVVdSUh.s:32     .text:0000000000000020 .L0 
     /tmp/ccVVdSUh.s:63     .text:0000000000000060 .L0 
GAS LISTING /tmp/ccVVdSUh.s 			page 14


     /tmp/ccVVdSUh.s:119    .text:00000000000000c4 .L0 
     /tmp/ccVVdSUh.s:176    .text:0000000000000134 .L0 
     /tmp/ccVVdSUh.s:299    .text:00000000000001f8 .L0 
     /tmp/ccVVdSUh.s:345    .text:0000000000000244 .L0 
     /tmp/ccVVdSUh.s:406    .text:00000000000002c0 .L0 
     /tmp/ccVVdSUh.s:40     .text:0000000000000040 .L2
     /tmp/ccVVdSUh.s:27     .text:0000000000000018 .L3
     /tmp/ccVVdSUh.s:58     .text:0000000000000058 .L4
     /tmp/ccVVdSUh.s:71     .text:0000000000000080 .L1
     /tmp/ccVVdSUh.s:127    .text:00000000000000e4 .L13
     /tmp/ccVVdSUh.s:114    .text:00000000000000bc .L9
     /tmp/ccVVdSUh.s:164    .text:0000000000000124 .L10
     /tmp/ccVVdSUh.s:161    .text:0000000000000120 .L14
     /tmp/ccVVdSUh.s:130    .text:00000000000000e8 .L8
     /tmp/ccVVdSUh.s:184    .text:0000000000000154 .L11
     /tmp/ccVVdSUh.s:171    .text:000000000000012c .L12
     /tmp/ccVVdSUh.s:256    .text:00000000000001bc .L17
     /tmp/ccVVdSUh.s:230    .text:000000000000018c .L18
     /tmp/ccVVdSUh.s:307    .text:0000000000000218 .L21
     /tmp/ccVVdSUh.s:294    .text:00000000000001f0 .L22
     /tmp/ccVVdSUh.s:318    .text:0000000000000220 .L23
     /tmp/ccVVdSUh.s:386    .text:00000000000002a4 .L31
     /tmp/ccVVdSUh.s:331    .text:000000000000022c .L25
     /tmp/ccVVdSUh.s:371    .text:0000000000000284 .L28
     /tmp/ccVVdSUh.s:401    .text:00000000000002b8 .L27
     /tmp/ccVVdSUh.s:326    .text:0000000000000228 .L24
     /tmp/ccVVdSUh.s:397    .text:00000000000002b0 .L32
     /tmp/ccVVdSUh.s:989    .debug_abbrev:0000000000000000 .Ldebug_abbrev0
     /tmp/ccVVdSUh.s:1658   .debug_str:00000000000001db .LASF39
     /tmp/ccVVdSUh.s:1596   .debug_str:0000000000000035 .LASF40
     /tmp/ccVVdSUh.s:1606   .debug_str:0000000000000074 .LASF41
     /tmp/ccVVdSUh.s:5      .text:0000000000000000 .Ltext0
     /tmp/ccVVdSUh.s:445    .text:00000000000002f0 .Letext0
     /tmp/ccVVdSUh.s:1584   .debug_line:0000000000000000 .Ldebug_line0
     /tmp/ccVVdSUh.s:1636   .debug_str:0000000000000133 .LASF0
     /tmp/ccVVdSUh.s:1602   .debug_str:0000000000000059 .LASF3
     /tmp/ccVVdSUh.s:1642   .debug_str:0000000000000161 .LASF1
     /tmp/ccVVdSUh.s:1630   .debug_str:000000000000010d .LASF2
     /tmp/ccVVdSUh.s:1620   .debug_str:00000000000000d9 .LASF4
     /tmp/ccVVdSUh.s:1654   .debug_str:00000000000001c0 .LASF5
     /tmp/ccVVdSUh.s:1592   .debug_str:000000000000001e .LASF6
     /tmp/ccVVdSUh.s:1646   .debug_str:0000000000000183 .LASF7
     /tmp/ccVVdSUh.s:1634   .debug_str:0000000000000120 .LASF8
     /tmp/ccVVdSUh.s:1662   .debug_str:00000000000002ae .LASF9
     /tmp/ccVVdSUh.s:1616   .debug_str:00000000000000bf .LASF10
     /tmp/ccVVdSUh.s:1650   .debug_str:000000000000019b .LASF11
     /tmp/ccVVdSUh.s:1660   .debug_str:000000000000029f .LASF12
     /tmp/ccVVdSUh.s:1594   .debug_str:0000000000000025 .LASF13
     /tmp/ccVVdSUh.s:1586   .debug_str:0000000000000000 .LASF14
     /tmp/ccVVdSUh.s:1600   .debug_str:000000000000004d .LASF15
     /tmp/ccVVdSUh.s:1652   .debug_str:00000000000001aa .LASF16
     /tmp/ccVVdSUh.s:1604   .debug_str:000000000000005e .LASF17
     /tmp/ccVVdSUh.s:1648   .debug_str:0000000000000196 .LASF18
     /tmp/ccVVdSUh.s:1610   .debug_str:000000000000009c .LASF19
     /tmp/ccVVdSUh.s:1622   .debug_str:00000000000000e0 .LASF20
     /tmp/ccVVdSUh.s:1626   .debug_str:00000000000000f6 .LASF21
     /tmp/ccVVdSUh.s:1614   .debug_str:00000000000000b6 .LASF27
GAS LISTING /tmp/ccVVdSUh.s 			page 15


     /tmp/ccVVdSUh.s:1644   .debug_str:0000000000000174 .LASF29
     /tmp/ccVVdSUh.s:272    .text:00000000000001c8 .LFB38
     /tmp/ccVVdSUh.s:426    .text:00000000000002f0 .LFE38
     /tmp/ccVVdSUh.s:1358   .debug_loc:0000000000000000 .LLST8
     /tmp/ccVVdSUh.s:1664   .debug_str:00000000000002be .LASF22
     /tmp/ccVVdSUh.s:1372   .debug_loc:0000000000000039 .LLST9
     /tmp/ccVVdSUh.s:1386   .debug_loc:0000000000000072 .LLST10
     /tmp/ccVVdSUh.s:1400   .debug_loc:00000000000000ab .LLST11
     /tmp/ccVVdSUh.s:1422   .debug_loc:000000000000010a .LLST12
     /tmp/ccVVdSUh.s:1439   .debug_loc:0000000000000155 .LLST13
     /tmp/ccVVdSUh.s:301    .text:0000000000000208 .LVL30
     /tmp/ccVVdSUh.s:305    .text:0000000000000214 .LVL31
     /tmp/ccVVdSUh.s:383    .text:00000000000002a0 .LVL41
     /tmp/ccVVdSUh.s:400    .text:00000000000002b8 .LVL45
     /tmp/ccVVdSUh.s:408    .text:00000000000002d0 .LVL46
     /tmp/ccVVdSUh.s:1618   .debug_str:00000000000000cd .LASF23
     /tmp/ccVVdSUh.s:1640   .debug_str:000000000000014e .LASF25
     /tmp/ccVVdSUh.s:213    .text:0000000000000178 .LFB37
     /tmp/ccVVdSUh.s:266    .text:00000000000001c8 .LFE37
     /tmp/ccVVdSUh.s:1468   .debug_loc:00000000000001ac .LLST6
     /tmp/ccVVdSUh.s:1479   .debug_loc:00000000000001e2 .LLST7
     /tmp/ccVVdSUh.s:1608   .debug_str:0000000000000092 .LASF24
     /tmp/ccVVdSUh.s:1668   .debug_str:00000000000002d6 .LASF26
     /tmp/ccVVdSUh.s:91     .text:0000000000000094 .LFB36
     /tmp/ccVVdSUh.s:207    .text:0000000000000178 .LFE36
     /tmp/ccVVdSUh.s:1501   .debug_loc:0000000000000241 .LLST1
     /tmp/ccVVdSUh.s:1516   .debug_loc:000000000000028a .LLST2
     /tmp/ccVVdSUh.s:1530   .debug_loc:00000000000002c3 .LLST3
     /tmp/ccVVdSUh.s:1541   .debug_loc:00000000000002f9 .LLST4
     /tmp/ccVVdSUh.s:1553   .debug_loc:0000000000000321 .LLST5
     /tmp/ccVVdSUh.s:121    .text:00000000000000d4 .LVL11
     /tmp/ccVVdSUh.s:125    .text:00000000000000e0 .LVL12
     /tmp/ccVVdSUh.s:142    .text:00000000000000fc .LVL15
     /tmp/ccVVdSUh.s:178    .text:0000000000000144 .LVL19
     /tmp/ccVVdSUh.s:182    .text:0000000000000150 .LVL20
     /tmp/ccVVdSUh.s:1624   .debug_str:00000000000000ea .LASF28
     /tmp/ccVVdSUh.s:1666   .debug_str:00000000000002c3 .LASF30
     /tmp/ccVVdSUh.s:10     .text:0000000000000000 .LFB35
     /tmp/ccVVdSUh.s:85     .text:0000000000000094 .LFE35
     /tmp/ccVVdSUh.s:1598   .debug_str:0000000000000046 .LASF31
     /tmp/ccVVdSUh.s:1560   .debug_loc:0000000000000344 .LLST0
     /tmp/ccVVdSUh.s:34     .text:0000000000000030 .LVL2
     /tmp/ccVVdSUh.s:38     .text:000000000000003c .LVL3
     /tmp/ccVVdSUh.s:51     .text:0000000000000050 .LVL4
     /tmp/ccVVdSUh.s:65     .text:0000000000000070 .LVL6
     /tmp/ccVVdSUh.s:69     .text:000000000000007c .LVL7
     /tmp/ccVVdSUh.s:1638   .debug_str:0000000000000140 .LASF32
     /tmp/ccVVdSUh.s:1612   .debug_str:00000000000000a1 .LASF33
     /tmp/ccVVdSUh.s:1628   .debug_str:00000000000000fd .LASF34
     /tmp/ccVVdSUh.s:1656   .debug_str:00000000000001d2 .LASF35
     /tmp/ccVVdSUh.s:1632   .debug_str:000000000000011b .LASF36
     /tmp/ccVVdSUh.s:1590   .debug_str:0000000000000015 .LASF37
     /tmp/ccVVdSUh.s:1588   .debug_str:0000000000000010 .LASF38
     /tmp/ccVVdSUh.s:275    .text:00000000000001c8 .LVL28
     /tmp/ccVVdSUh.s:293    .text:00000000000001f0 .LVL29
     /tmp/ccVVdSUh.s:325    .text:0000000000000228 .LVL34
     /tmp/ccVVdSUh.s:330    .text:000000000000022c .LVL35
GAS LISTING /tmp/ccVVdSUh.s 			page 16


     /tmp/ccVVdSUh.s:341    .text:000000000000023c .LVL36
     /tmp/ccVVdSUh.s:362    .text:0000000000000270 .LVL38
     /tmp/ccVVdSUh.s:370    .text:0000000000000284 .LVL39
     /tmp/ccVVdSUh.s:375    .text:0000000000000288 .LVL40
     /tmp/ccVVdSUh.s:313    .text:0000000000000218 .LVL32
     /tmp/ccVVdSUh.s:385    .text:00000000000002a4 .LVL42
     /tmp/ccVVdSUh.s:396    .text:00000000000002b0 .LVL44
     /tmp/ccVVdSUh.s:322    .text:0000000000000224 .LVL33
     /tmp/ccVVdSUh.s:356    .text:0000000000000268 .LVL37
     /tmp/ccVVdSUh.s:391    .text:00000000000002a8 .LVL43
     /tmp/ccVVdSUh.s:216    .text:0000000000000178 .LVL22
     /tmp/ccVVdSUh.s:229    .text:000000000000018c .LVL24
     /tmp/ccVVdSUh.s:226    .text:0000000000000188 .LVL23
     /tmp/ccVVdSUh.s:252    .text:00000000000001b8 .LVL26
     /tmp/ccVVdSUh.s:255    .text:00000000000001bc .LVL27
     /tmp/ccVVdSUh.s:94     .text:0000000000000094 .LVL9
     /tmp/ccVVdSUh.s:113    .text:00000000000000bc .LVL10
     /tmp/ccVVdSUh.s:200    .text:000000000000016c .LVL21
     /tmp/ccVVdSUh.s:131    .text:00000000000000e8 .LVL13
     /tmp/ccVVdSUh.s:136    .text:00000000000000f0 .LVL14
     /tmp/ccVVdSUh.s:163    .text:0000000000000124 .LVL17
     /tmp/ccVVdSUh.s:168    .text:0000000000000128 .LVL18
     /tmp/ccVVdSUh.s:146    .text:0000000000000100 .LVL16
     /tmp/ccVVdSUh.s:14     .text:0000000000000000 .LVL0
     /tmp/ccVVdSUh.s:26     .text:0000000000000018 .LVL1
     /tmp/ccVVdSUh.s:80     .text:000000000000008c .LVL8
     /tmp/ccVVdSUh.s:450    .debug_info:0000000000000000 .Ldebug_info0

UNDEFINED SYMBOLS
copy_and_swap
_Z15thread_dispatchv
_Z4putcc
_Z4getcv
