GAS LISTING /tmp/ccyPgUQ6.s 			page 1


   1              		.file	"scheduler.cpp"
   2              		.option pic
   3              		.option norelax
   4              		.text
   5              	.Ltext0:
   6              		.align	2
   8              	_Z41__static_initialization_and_destruction_0ii:
   9              	.LFB26:
  10              		.file 1 "src/scheduler.cpp"
   1:src/scheduler.cpp **** 
   2:src/scheduler.cpp **** #include "../h/scheduler.hpp"
   3:src/scheduler.cpp **** 
   4:src/scheduler.cpp **** Queue<TCB>Scheduler::readyQueue;
   5:src/scheduler.cpp **** 
   6:src/scheduler.cpp **** TCB *Scheduler::get() {
   7:src/scheduler.cpp ****     return readyQueue.izbrisiPrvi();
   8:src/scheduler.cpp **** }
   9:src/scheduler.cpp **** 
  10:src/scheduler.cpp **** void Scheduler::put(TCB *tcb) {
  11:src/scheduler.cpp ****     readyQueue.dodaj(tcb);
  12:src/scheduler.cpp **** }...
  11              		.loc 1 12 1
  12              		.cfi_startproc
  13              	.LVL0:
  14 0000 130101FF 		addi	sp,sp,-16
  15              		.cfi_def_cfa_offset 16
  16 0004 23348100 		sd	s0,8(sp)
  17              		.cfi_offset 8, -8
  18 0008 13040101 		addi	s0,sp,16
  19              		.cfi_def_cfa 8, 0
  20              		.loc 1 12 1 is_stmt 0
  21 000c 93071000 		li	a5,1
  22 0010 6308F500 		beq	a0,a5,.L4
  23              	.L1:
  24 0014 03348100 		ld	s0,8(sp)
  25              		.cfi_remember_state
  26              		.cfi_restore 8
  27              		.cfi_def_cfa 2, 16
  28 0018 13010101 		addi	sp,sp,16
  29              		.cfi_def_cfa_offset 0
  30 001c 67800000 		jr	ra
  31              	.L4:
  32              		.cfi_restore_state
  33              		.loc 1 12 1 discriminator 1
  34 0020 B7070100 		li	a5,65536
  35 0024 9387F7FF 		addi	a5,a5,-1
  36 0028 E396F5FE 		bne	a1,a5,.L1
  37              	.LVL1:
  38              	.LBB19:
  39              	.LBB20:
  40              	.LBB21:
  41              		.file 2 "src/../h/queue.hpp"
   1:src/../h/queue.hpp **** 
   2:src/../h/queue.hpp **** #ifndef __QUEUE_H__
   3:src/../h/queue.hpp **** #define __QUEUE_H__
   4:src/../h/queue.hpp **** #include "../h/MemoryAllocator.hpp"
   5:src/../h/queue.hpp **** 
GAS LISTING /tmp/ccyPgUQ6.s 			page 2


   6:src/../h/queue.hpp **** template<typename T>
   7:src/../h/queue.hpp **** class Queue{
   8:src/../h/queue.hpp **** private:
   9:src/../h/queue.hpp ****     struct Elem{
  10:src/../h/queue.hpp ****         T *tcb;
  11:src/../h/queue.hpp ****         Elem *sled;
  12:src/../h/queue.hpp **** 
  13:src/../h/queue.hpp **** 
  14:src/../h/queue.hpp ****         Elem(T *tcb){
  15:src/../h/queue.hpp ****             this->tcb=tcb;
  16:src/../h/queue.hpp ****             sled= nullptr;
  17:src/../h/queue.hpp ****         }
  18:src/../h/queue.hpp ****         void *operator new(uint64 n) {
  19:src/../h/queue.hpp ****            return MemoryAllocator::memAlloc(n);
  20:src/../h/queue.hpp ****         }
  21:src/../h/queue.hpp **** 
  22:src/../h/queue.hpp ****         void operator delete(void *ptr) {
  23:src/../h/queue.hpp ****             MemoryAllocator::memFree(ptr);
  24:src/../h/queue.hpp ****         }
  25:src/../h/queue.hpp **** 
  26:src/../h/queue.hpp ****         void *operator new[](uint64 n) {
  27:src/../h/queue.hpp ****             return MemoryAllocator::memAlloc(n);
  28:src/../h/queue.hpp ****         }
  29:src/../h/queue.hpp **** 
  30:src/../h/queue.hpp ****         void operator delete[](void *ptr) noexcept {
  31:src/../h/queue.hpp ****            MemoryAllocator::memFree(ptr);
  32:src/../h/queue.hpp ****         }
  33:src/../h/queue.hpp **** 
  34:src/../h/queue.hpp ****     };
  35:src/../h/queue.hpp **** 
  36:src/../h/queue.hpp ****     Elem *prvi, *posl;
  37:src/../h/queue.hpp ****     int vel;
  38:src/../h/queue.hpp **** public:
  39:src/../h/queue.hpp ****     Queue() : prvi(nullptr), posl(nullptr) {}
  42              		.loc 2 39 42
  43 002c 97070000 		lla	a5,.LANCHOR0
  43      93870700 
  44 0034 23B00700 		sd	zero,0(a5)
  45 0038 23B40700 		sd	zero,8(a5)
  46              	.LVL2:
  47              	.LBE21:
  48              	.LBE20:
  49              	.LBE19:
  50              		.loc 1 12 1
  51 003c 6FF09FFD 		j	.L1
  52              		.cfi_endproc
  53              	.LFE26:
  55              		.align	2
  56              		.globl	_ZN9Scheduler3getEv
  58              	_ZN9Scheduler3getEv:
  59              	.LFB14:
   6:src/scheduler.cpp **** TCB *Scheduler::get() {
  60              		.loc 1 6 23 is_stmt 1
  61              		.cfi_startproc
  62 0040 130101FE 		addi	sp,sp,-32
  63              		.cfi_def_cfa_offset 32
  64 0044 233C1100 		sd	ra,24(sp)
GAS LISTING /tmp/ccyPgUQ6.s 			page 3


  65 0048 23388100 		sd	s0,16(sp)
  66 004c 23349100 		sd	s1,8(sp)
  67              		.cfi_offset 1, -8
  68              		.cfi_offset 8, -16
  69              		.cfi_offset 9, -24
  70 0050 13040102 		addi	s0,sp,32
  71              		.cfi_def_cfa 8, 0
   7:src/scheduler.cpp ****     return readyQueue.izbrisiPrvi();
  72              		.loc 1 7 5
  73              	.LVL3:
  74              	.LBB28:
  75              	.LBB29:
  76              	.LBB30:
  40:src/../h/queue.hpp **** 
  41:src/../h/queue.hpp ****     Queue(const Queue<T> &) = delete;
  42:src/../h/queue.hpp **** 
  43:src/../h/queue.hpp ****     Queue<T> &operator=(const Queue<T> &) = delete;
  44:src/../h/queue.hpp **** 
  45:src/../h/queue.hpp ****     int getVel()const{return vel;}
  46:src/../h/queue.hpp **** 
  47:src/../h/queue.hpp ****     void dodajPrvi(T *tcb){
  48:src/../h/queue.hpp ****         Elem *elem = new Elem(tcb);
  49:src/../h/queue.hpp ****         vel++;
  50:src/../h/queue.hpp ****         prvi = elem;
  51:src/../h/queue.hpp ****         if(!posl){ posl=prvi;}
  52:src/../h/queue.hpp ****     }
  53:src/../h/queue.hpp ****     void dodaj(T *tcb){
  54:src/../h/queue.hpp ****         Elem* temp = 0;
  55:src/../h/queue.hpp ****         for (temp = prvi; temp; temp= temp->sled);
  56:src/../h/queue.hpp ****         if (temp != nullptr) return;
  57:src/../h/queue.hpp ****         if (prvi== nullptr) prvi= posl = new Elem(tcb);
  58:src/../h/queue.hpp ****         else posl = posl->sled = new Elem(tcb);
  59:src/../h/queue.hpp ****         vel++;
  60:src/../h/queue.hpp **** 
  61:src/../h/queue.hpp ****     }
  62:src/../h/queue.hpp ****     T *izbrisiPrvi(){
  63:src/../h/queue.hpp ****         T* ret = 0;
  64:src/../h/queue.hpp ****         if (prvi != nullptr) {
  77              		.loc 2 64 13 is_stmt 0
  78 0054 17050000 		ld	a0,.LANCHOR0
  78      03350500 
  79              		.loc 2 64 9
  80 005c 630C0504 		beqz	a0,.L8
  81              	.LVL4:
  82              	.LBB31:
  65:src/../h/queue.hpp **** 
  66:src/../h/queue.hpp ****             Elem* temp = prvi;
  67:src/../h/queue.hpp ****             prvi=prvi->sled;
  83              		.loc 2 67 24
  84 0060 83378500 		ld	a5,8(a0)
  85              		.loc 2 67 13
  86 0064 17070000 		sd	a5,.LANCHOR0,a4
  86      2330F700 
  68:src/../h/queue.hpp ****             if (prvi== nullptr)
  87              		.loc 2 68 13
  88 006c 638E0702 		beqz	a5,.L10
  89              	.L7:
GAS LISTING /tmp/ccyPgUQ6.s 			page 4


  69:src/../h/queue.hpp ****                 posl= nullptr;
  70:src/../h/queue.hpp ****             ret = temp->tcb;
  90              		.loc 2 70 13
  91 0070 83340500 		ld	s1,0(a0)
  92              	.LVL5:
  93              	.LBB32:
  94              	.LBB33:
  23:src/../h/queue.hpp ****         }
  95              		.loc 2 23 37
  96 0074 97000000 		call	_ZN15MemoryAllocator7memFreeEPv@plt
  96      E7800000 
  97              	.LVL6:
  98              	.LBE33:
  99              	.LBE32:
  71:src/../h/queue.hpp ****             delete temp;
  72:src/../h/queue.hpp ****             vel--;
 100              		.loc 2 72 13
 101 007c 17070000 		lla	a4,.LANCHOR0
 101      13070700 
 102 0084 83270701 		lw	a5,16(a4)
 103 0088 9B87F7FF 		addiw	a5,a5,-1
 104 008c 2328F700 		sw	a5,16(a4)
 105              	.LVL7:
 106              	.L5:
 107              	.LBE31:
 108              	.LBE30:
 109              	.LBE29:
 110              	.LBE28:
   8:src/scheduler.cpp **** }
 111              		.loc 1 8 1
 112 0090 13850400 		mv	a0,s1
 113 0094 83308101 		ld	ra,24(sp)
 114              		.cfi_remember_state
 115              		.cfi_restore 1
 116 0098 03340101 		ld	s0,16(sp)
 117              		.cfi_restore 8
 118              		.cfi_def_cfa 2, 32
 119 009c 83348100 		ld	s1,8(sp)
 120              		.cfi_restore 9
 121 00a0 13010102 		addi	sp,sp,32
 122              		.cfi_def_cfa_offset 0
 123 00a4 67800000 		jr	ra
 124              	.LVL8:
 125              	.L10:
 126              		.cfi_restore_state
 127              	.LBB37:
 128              	.LBB36:
 129              	.LBB35:
 130              	.LBB34:
  69:src/../h/queue.hpp ****             ret = temp->tcb;
 131              		.loc 2 69 17
 132 00a8 97070000 		sd	zero,.LANCHOR0+8,a5
 132      23B00700 
 133 00b0 6FF01FFC 		j	.L7
 134              	.LVL9:
 135              	.L8:
 136              	.LBE34:
GAS LISTING /tmp/ccyPgUQ6.s 			page 5


 137              	.LBE35:
  63:src/../h/queue.hpp ****         if (prvi != nullptr) {
 138              		.loc 2 63 12
 139 00b4 93040500 		mv	s1,a0
 140              	.LVL10:
 141              	.LBE36:
 142              	.LBE37:
   7:src/scheduler.cpp ****     return readyQueue.izbrisiPrvi();
 143              		.loc 1 7 35
 144 00b8 6FF09FFD 		j	.L5
 145              		.cfi_endproc
 146              	.LFE14:
 148              		.align	2
 149              		.globl	_ZN9Scheduler3putEP3TCB
 151              	_ZN9Scheduler3putEP3TCB:
 152              	.LFB15:
  10:src/scheduler.cpp **** void Scheduler::put(TCB *tcb) {
 153              		.loc 1 10 31 is_stmt 1
 154              		.cfi_startproc
 155              	.LVL11:
 156 00bc 130101FE 		addi	sp,sp,-32
 157              		.cfi_def_cfa_offset 32
 158 00c0 233C1100 		sd	ra,24(sp)
 159 00c4 23388100 		sd	s0,16(sp)
 160 00c8 23349100 		sd	s1,8(sp)
 161              		.cfi_offset 1, -8
 162              		.cfi_offset 8, -16
 163              		.cfi_offset 9, -24
 164 00cc 13040102 		addi	s0,sp,32
 165              		.cfi_def_cfa 8, 0
 166 00d0 93040500 		mv	s1,a0
  11:src/scheduler.cpp ****     readyQueue.dodaj(tcb);
 167              		.loc 1 11 5
 168              	.LVL12:
 169              	.LBB50:
 170              	.LBB51:
  55:src/../h/queue.hpp ****         if (temp != nullptr) return;
 171              		.loc 2 55 19 is_stmt 0
 172 00d4 17070000 		ld	a4,.LANCHOR0
 172      03370700 
 173              	.LVL13:
 174 00dc 93070700 		mv	a5,a4
 175              	.LVL14:
 176              	.L13:
  55:src/../h/queue.hpp ****         if (temp != nullptr) return;
 177              		.loc 2 55 9 is_stmt 1
 178 00e0 63860700 		beqz	a5,.L12
  55:src/../h/queue.hpp ****         if (temp != nullptr) return;
 179              		.loc 2 55 9
 180 00e4 83B78700 		ld	a5,8(a5)
 181              	.LVL15:
 182 00e8 6FF09FFF 		j	.L13
 183              	.L12:
  57:src/../h/queue.hpp ****         else posl = posl->sled = new Elem(tcb);
 184              		.loc 2 57 9 is_stmt 0
 185 00ec 630A0704 		beqz	a4,.L17
 186              	.LVL16:
GAS LISTING /tmp/ccyPgUQ6.s 			page 6


 187              	.LBB52:
 188              	.LBB53:
  19:src/../h/queue.hpp ****         }
 189              		.loc 2 19 44
 190 00f0 13050001 		li	a0,16
 191              	.LVL17:
 192 00f4 97000000 		call	_ZN15MemoryAllocator8memAllocEm@plt
 192      E7800000 
 193              	.LVL18:
 194              	.LBE53:
 195              	.LBE52:
 196              	.LBB54:
 197              	.LBB55:
  15:src/../h/queue.hpp ****             sled= nullptr;
 198              		.loc 2 15 13
 199 00fc 23309500 		sd	s1,0(a0)
  16:src/../h/queue.hpp ****         }
 200              		.loc 2 16 13
 201 0100 23340500 		sd	zero,8(a0)
 202              	.LVL19:
 203              	.LBE55:
 204              	.LBE54:
  58:src/../h/queue.hpp ****         vel++;
 205              		.loc 2 58 21
 206 0104 97070000 		lla	a5,.LANCHOR0
 206      93870700 
 207 010c 03B78700 		ld	a4,8(a5)
  58:src/../h/queue.hpp ****         vel++;
 208              		.loc 2 58 14
 209 0110 2334A700 		sd	a0,8(a4)
 210 0114 23B4A700 		sd	a0,8(a5)
 211              	.L15:
  59:src/../h/queue.hpp **** 
 212              		.loc 2 59 9
 213 0118 17070000 		lla	a4,.LANCHOR0
 213      13070700 
 214 0120 83270701 		lw	a5,16(a4)
 215 0124 9B871700 		addiw	a5,a5,1
 216 0128 2328F700 		sw	a5,16(a4)
 217              	.LVL20:
 218              	.LBE51:
 219              	.LBE50:
 220              		.loc 1 12 1
 221 012c 83308101 		ld	ra,24(sp)
 222              		.cfi_remember_state
 223              		.cfi_restore 1
 224 0130 03340101 		ld	s0,16(sp)
 225              		.cfi_restore 8
 226              		.cfi_def_cfa 2, 32
 227 0134 83348100 		ld	s1,8(sp)
 228              		.cfi_restore 9
 229              	.LVL21:
 230 0138 13010102 		addi	sp,sp,32
 231              		.cfi_def_cfa_offset 0
 232 013c 67800000 		jr	ra
 233              	.LVL22:
 234              	.L17:
GAS LISTING /tmp/ccyPgUQ6.s 			page 7


 235              		.cfi_restore_state
 236              	.LBB61:
 237              	.LBB60:
 238              	.LBB56:
 239              	.LBB57:
  19:src/../h/queue.hpp ****         }
 240              		.loc 2 19 44
 241 0140 13050001 		li	a0,16
 242 0144 97000000 		call	_ZN15MemoryAllocator8memAllocEm@plt
 242      E7800000 
 243              	.LVL23:
 244              	.LBE57:
 245              	.LBE56:
 246              	.LBB58:
 247              	.LBB59:
  15:src/../h/queue.hpp ****             sled= nullptr;
 248              		.loc 2 15 13
 249 014c 23309500 		sd	s1,0(a0)
  16:src/../h/queue.hpp ****         }
 250              		.loc 2 16 13
 251 0150 23340500 		sd	zero,8(a0)
 252              	.LVL24:
 253              	.LBE59:
 254              	.LBE58:
  57:src/../h/queue.hpp ****         else posl = posl->sled = new Elem(tcb);
 255              		.loc 2 57 29
 256 0154 97070000 		lla	a5,.LANCHOR0
 256      93870700 
 257 015c 23B4A700 		sd	a0,8(a5)
 258 0160 23B0A700 		sd	a0,0(a5)
 259 0164 6FF05FFB 		j	.L15
 260              	.LBE60:
 261              	.LBE61:
 262              		.cfi_endproc
 263              	.LFE15:
 265              		.align	2
 267              	_GLOBAL__sub_I__ZN9Scheduler10readyQueueE:
 268              	.LFB27:
 269              		.loc 1 12 1 is_stmt 1
 270              		.cfi_startproc
 271 0168 130101FF 		addi	sp,sp,-16
 272              		.cfi_def_cfa_offset 16
 273 016c 23341100 		sd	ra,8(sp)
 274 0170 23308100 		sd	s0,0(sp)
 275              		.cfi_offset 1, -8
 276              		.cfi_offset 8, -16
 277 0174 13040101 		addi	s0,sp,16
 278              		.cfi_def_cfa 8, 0
 279              		.loc 1 12 1 is_stmt 0
 280 0178 B7050100 		li	a1,65536
 281 017c 9385F5FF 		addi	a1,a1,-1
 282 0180 13051000 		li	a0,1
 283 0184 97000000 		call	_Z41__static_initialization_and_destruction_0ii
 283      E7800000 
 284              	.LVL25:
 285 018c 83308100 		ld	ra,8(sp)
 286              		.cfi_restore 1
GAS LISTING /tmp/ccyPgUQ6.s 			page 8


 287 0190 03340100 		ld	s0,0(sp)
 288              		.cfi_restore 8
 289              		.cfi_def_cfa 2, 16
 290 0194 13010101 		addi	sp,sp,16
 291              		.cfi_def_cfa_offset 0
 292 0198 67800000 		jr	ra
 293              		.cfi_endproc
 294              	.LFE27:
 296              		.section	.init_array,"aw"
 297              		.align	3
 298 0000 00000000 		.dword	_GLOBAL__sub_I__ZN9Scheduler10readyQueueE
 298      00000000 
 299              		.globl	_ZN9Scheduler10readyQueueE
 300              		.bss
 301              		.align	3
 302              		.set	.LANCHOR0,. + 0
 305              	_ZN9Scheduler10readyQueueE:
 306 0000 00000000 		.zero	24
 306      00000000 
 306      00000000 
 306      00000000 
 306      00000000 
 307              		.text
 308              	.Letext0:
 309              		.file 3 "src/../h/../h/../lib/hw.h"
 310              		.file 4 "src/../h/../h/MemoryAllocator.hpp"
 311              		.file 5 "src/../h/scheduler.hpp"
GAS LISTING /tmp/ccyPgUQ6.s 			page 9


DEFINED SYMBOLS
                            *ABS*:0000000000000000 scheduler.cpp
     /tmp/ccyPgUQ6.s:8      .text:0000000000000000 _Z41__static_initialization_and_destruction_0ii
     /tmp/ccyPgUQ6.s:12     .text:0000000000000000 .L0 
     /tmp/ccyPgUQ6.s:14     .text:0000000000000000 .L0 
     /tmp/ccyPgUQ6.s:15     .text:0000000000000004 .L0 
     /tmp/ccyPgUQ6.s:17     .text:0000000000000008 .L0 
     /tmp/ccyPgUQ6.s:19     .text:000000000000000c .L0 
     /tmp/ccyPgUQ6.s:21     .text:000000000000000c .L0 
     /tmp/ccyPgUQ6.s:25     .text:0000000000000018 .L0 
     /tmp/ccyPgUQ6.s:26     .text:0000000000000018 .L0 
     /tmp/ccyPgUQ6.s:27     .text:0000000000000018 .L0 
     /tmp/ccyPgUQ6.s:29     .text:000000000000001c .L0 
     /tmp/ccyPgUQ6.s:32     .text:0000000000000020 .L0 
     /tmp/ccyPgUQ6.s:34     .text:0000000000000020 .L0 
     /tmp/ccyPgUQ6.s:43     .text:000000000000002c .L0 
     /tmp/ccyPgUQ6.s:51     .text:000000000000003c .L0 
     /tmp/ccyPgUQ6.s:52     .text:0000000000000040 .L0 
     /tmp/ccyPgUQ6.s:58     .text:0000000000000040 _ZN9Scheduler3getEv
     /tmp/ccyPgUQ6.s:61     .text:0000000000000040 .L0 
     /tmp/ccyPgUQ6.s:62     .text:0000000000000040 .L0 
     /tmp/ccyPgUQ6.s:63     .text:0000000000000044 .L0 
     /tmp/ccyPgUQ6.s:67     .text:0000000000000050 .L0 
     /tmp/ccyPgUQ6.s:68     .text:0000000000000050 .L0 
     /tmp/ccyPgUQ6.s:69     .text:0000000000000050 .L0 
     /tmp/ccyPgUQ6.s:71     .text:0000000000000054 .L0 
     /tmp/ccyPgUQ6.s:77     .text:0000000000000054 .L0 
     /tmp/ccyPgUQ6.s:78     .text:0000000000000054 .L0 
     /tmp/ccyPgUQ6.s:80     .text:000000000000005c .L0 
     /tmp/ccyPgUQ6.s:84     .text:0000000000000060 .L0 
     /tmp/ccyPgUQ6.s:86     .text:0000000000000064 .L0 
     /tmp/ccyPgUQ6.s:88     .text:000000000000006c .L0 
     /tmp/ccyPgUQ6.s:91     .text:0000000000000070 .L0 
     /tmp/ccyPgUQ6.s:96     .text:0000000000000074 .L0 
     /tmp/ccyPgUQ6.s:101    .text:000000000000007c .L0 
     /tmp/ccyPgUQ6.s:112    .text:0000000000000090 .L0 
     /tmp/ccyPgUQ6.s:114    .text:0000000000000098 .L0 
     /tmp/ccyPgUQ6.s:115    .text:0000000000000098 .L0 
     /tmp/ccyPgUQ6.s:117    .text:000000000000009c .L0 
     /tmp/ccyPgUQ6.s:118    .text:000000000000009c .L0 
     /tmp/ccyPgUQ6.s:120    .text:00000000000000a0 .L0 
     /tmp/ccyPgUQ6.s:122    .text:00000000000000a4 .L0 
     /tmp/ccyPgUQ6.s:126    .text:00000000000000a8 .L0 
     /tmp/ccyPgUQ6.s:132    .text:00000000000000a8 .L0 
     /tmp/ccyPgUQ6.s:139    .text:00000000000000b4 .L0 
     /tmp/ccyPgUQ6.s:144    .text:00000000000000b8 .L0 
     /tmp/ccyPgUQ6.s:145    .text:00000000000000bc .L0 
     /tmp/ccyPgUQ6.s:151    .text:00000000000000bc _ZN9Scheduler3putEP3TCB
     /tmp/ccyPgUQ6.s:154    .text:00000000000000bc .L0 
     /tmp/ccyPgUQ6.s:156    .text:00000000000000bc .L0 
     /tmp/ccyPgUQ6.s:157    .text:00000000000000c0 .L0 
     /tmp/ccyPgUQ6.s:161    .text:00000000000000cc .L0 
     /tmp/ccyPgUQ6.s:162    .text:00000000000000cc .L0 
     /tmp/ccyPgUQ6.s:163    .text:00000000000000cc .L0 
     /tmp/ccyPgUQ6.s:165    .text:00000000000000d0 .L0 
     /tmp/ccyPgUQ6.s:171    .text:00000000000000d4 .L0 
     /tmp/ccyPgUQ6.s:172    .text:00000000000000d4 .L0 
GAS LISTING /tmp/ccyPgUQ6.s 			page 10


     /tmp/ccyPgUQ6.s:178    .text:00000000000000e0 .L0 
     /tmp/ccyPgUQ6.s:180    .text:00000000000000e4 .L0 
     /tmp/ccyPgUQ6.s:185    .text:00000000000000ec .L0 
     /tmp/ccyPgUQ6.s:190    .text:00000000000000f0 .L0 
     /tmp/ccyPgUQ6.s:199    .text:00000000000000fc .L0 
     /tmp/ccyPgUQ6.s:201    .text:0000000000000100 .L0 
     /tmp/ccyPgUQ6.s:206    .text:0000000000000104 .L0 
     /tmp/ccyPgUQ6.s:209    .text:0000000000000110 .L0 
     /tmp/ccyPgUQ6.s:213    .text:0000000000000118 .L0 
     /tmp/ccyPgUQ6.s:221    .text:000000000000012c .L0 
     /tmp/ccyPgUQ6.s:222    .text:0000000000000130 .L0 
     /tmp/ccyPgUQ6.s:223    .text:0000000000000130 .L0 
     /tmp/ccyPgUQ6.s:225    .text:0000000000000134 .L0 
     /tmp/ccyPgUQ6.s:226    .text:0000000000000134 .L0 
     /tmp/ccyPgUQ6.s:228    .text:0000000000000138 .L0 
     /tmp/ccyPgUQ6.s:231    .text:000000000000013c .L0 
     /tmp/ccyPgUQ6.s:235    .text:0000000000000140 .L0 
     /tmp/ccyPgUQ6.s:241    .text:0000000000000140 .L0 
     /tmp/ccyPgUQ6.s:249    .text:000000000000014c .L0 
     /tmp/ccyPgUQ6.s:251    .text:0000000000000150 .L0 
     /tmp/ccyPgUQ6.s:256    .text:0000000000000154 .L0 
     /tmp/ccyPgUQ6.s:262    .text:0000000000000168 .L0 
     /tmp/ccyPgUQ6.s:267    .text:0000000000000168 _GLOBAL__sub_I__ZN9Scheduler10readyQueueE
     /tmp/ccyPgUQ6.s:270    .text:0000000000000168 .L0 
     /tmp/ccyPgUQ6.s:271    .text:0000000000000168 .L0 
     /tmp/ccyPgUQ6.s:272    .text:000000000000016c .L0 
     /tmp/ccyPgUQ6.s:275    .text:0000000000000174 .L0 
     /tmp/ccyPgUQ6.s:276    .text:0000000000000174 .L0 
     /tmp/ccyPgUQ6.s:278    .text:0000000000000178 .L0 
     /tmp/ccyPgUQ6.s:280    .text:0000000000000178 .L0 
     /tmp/ccyPgUQ6.s:286    .text:0000000000000190 .L0 
     /tmp/ccyPgUQ6.s:288    .text:0000000000000194 .L0 
     /tmp/ccyPgUQ6.s:289    .text:0000000000000194 .L0 
     /tmp/ccyPgUQ6.s:291    .text:0000000000000198 .L0 
     /tmp/ccyPgUQ6.s:293    .text:000000000000019c .L0 
     /tmp/ccyPgUQ6.s:305    .bss:0000000000000000 _ZN9Scheduler10readyQueueE
     /tmp/ccyPgUQ6.s:302    .bss:0000000000000000 .LANCHOR0
     /tmp/ccyPgUQ6.s:312    .text:000000000000019c .L0 
     /tmp/ccyPgUQ6.s:43     .text:000000000000002c .L0 
     /tmp/ccyPgUQ6.s:78     .text:0000000000000054 .L0 
     /tmp/ccyPgUQ6.s:86     .text:0000000000000064 .L0 
     /tmp/ccyPgUQ6.s:101    .text:000000000000007c .L0 
     /tmp/ccyPgUQ6.s:132    .text:00000000000000a8 .L0 
     /tmp/ccyPgUQ6.s:172    .text:00000000000000d4 .L0 
     /tmp/ccyPgUQ6.s:206    .text:0000000000000104 .L0 
     /tmp/ccyPgUQ6.s:213    .text:0000000000000118 .L0 
     /tmp/ccyPgUQ6.s:256    .text:0000000000000154 .L0 
     /tmp/ccyPgUQ6.s:31     .text:0000000000000020 .L4
     /tmp/ccyPgUQ6.s:23     .text:0000000000000014 .L1
     /tmp/ccyPgUQ6.s:135    .text:00000000000000b4 .L8
     /tmp/ccyPgUQ6.s:125    .text:00000000000000a8 .L10
     /tmp/ccyPgUQ6.s:89     .text:0000000000000070 .L7
     /tmp/ccyPgUQ6.s:106    .text:0000000000000090 .L5
     /tmp/ccyPgUQ6.s:183    .text:00000000000000ec .L12
     /tmp/ccyPgUQ6.s:176    .text:00000000000000e0 .L13
     /tmp/ccyPgUQ6.s:234    .text:0000000000000140 .L17
     /tmp/ccyPgUQ6.s:211    .text:0000000000000118 .L15
GAS LISTING /tmp/ccyPgUQ6.s 			page 11


     /tmp/ccyPgUQ6.s:1183   .debug_abbrev:0000000000000000 .Ldebug_abbrev0
     /tmp/ccyPgUQ6.s:2460   .debug_str:0000000000000454 .LASF66
     /tmp/ccyPgUQ6.s:2484   .debug_str:00000000000005d2 .LASF67
     /tmp/ccyPgUQ6.s:2362   .debug_str:0000000000000123 .LASF68
     /tmp/ccyPgUQ6.s:5      .text:0000000000000000 .Ltext0
     /tmp/ccyPgUQ6.s:308    .text:000000000000019c .Letext0
     /tmp/ccyPgUQ6.s:2332   .debug_line:0000000000000000 .Ldebug_line0
     /tmp/ccyPgUQ6.s:2418   .debug_str:00000000000002ff .LASF0
     /tmp/ccyPgUQ6.s:2424   .debug_str:0000000000000335 .LASF1
     /tmp/ccyPgUQ6.s:2404   .debug_str:00000000000002a2 .LASF2
     /tmp/ccyPgUQ6.s:2382   .debug_str:00000000000001f6 .LASF4
     /tmp/ccyPgUQ6.s:2448   .debug_str:00000000000003d9 .LASF3
     /tmp/ccyPgUQ6.s:2346   .debug_str:0000000000000079 .LASF5
     /tmp/ccyPgUQ6.s:2428   .debug_str:000000000000034e .LASF6
     /tmp/ccyPgUQ6.s:2416   .debug_str:00000000000002ec .LASF7
     /tmp/ccyPgUQ6.s:2476   .debug_str:000000000000057c .LASF8
     /tmp/ccyPgUQ6.s:2372   .debug_str:000000000000017e .LASF9
     /tmp/ccyPgUQ6.s:2436   .debug_str:000000000000037a .LASF10
     /tmp/ccyPgUQ6.s:2464   .debug_str:0000000000000537 .LASF11
     /tmp/ccyPgUQ6.s:2348   .debug_str:0000000000000080 .LASF12
     /tmp/ccyPgUQ6.s:2336   .debug_str:000000000000001f .LASF13
     /tmp/ccyPgUQ6.s:2356   .debug_str:00000000000000ed .LASF14
     /tmp/ccyPgUQ6.s:2446   .debug_str:00000000000003c3 .LASF15
     /tmp/ccyPgUQ6.s:2360   .debug_str:000000000000010d .LASF16
     /tmp/ccyPgUQ6.s:2400   .debug_str:000000000000027a .LASF26
     /tmp/ccyPgUQ6.s:2492   .debug_str:000000000000060e .LASF17
     /tmp/ccyPgUQ6.s:2456   .debug_str:0000000000000428 .LASF18
     /tmp/ccyPgUQ6.s:2438   .debug_str:0000000000000389 .LASF19
     /tmp/ccyPgUQ6.s:2368   .debug_str:0000000000000169 .LASF20
     /tmp/ccyPgUQ6.s:2434   .debug_str:0000000000000370 .LASF69
     /tmp/ccyPgUQ6.s:2408   .debug_str:00000000000002b8 .LASF21
     /tmp/ccyPgUQ6.s:2480   .debug_str:00000000000005a5 .LASF23
     /tmp/ccyPgUQ6.s:2406   .debug_str:00000000000002b0 .LASF22
     /tmp/ccyPgUQ6.s:2340   .debug_str:0000000000000049 .LASF24
     /tmp/ccyPgUQ6.s:2472   .debug_str:0000000000000558 .LASF70
     /tmp/ccyPgUQ6.s:2334   .debug_str:0000000000000000 .LASF71
     /tmp/ccyPgUQ6.s:2430   .debug_str:0000000000000361 .LASF25
     /tmp/ccyPgUQ6.s:2432   .debug_str:0000000000000366 .LASF27
     /tmp/ccyPgUQ6.s:2342   .debug_str:0000000000000069 .LASF72
     /tmp/ccyPgUQ6.s:2378   .debug_str:00000000000001c2 .LASF73
     /tmp/ccyPgUQ6.s:2354   .debug_str:00000000000000d5 .LASF74
     /tmp/ccyPgUQ6.s:2384   .debug_str:00000000000001fd .LASF28
     /tmp/ccyPgUQ6.s:2466   .debug_str:0000000000000546 .LASF30
     /tmp/ccyPgUQ6.s:2468   .debug_str:000000000000054b .LASF29
     /tmp/ccyPgUQ6.s:2376   .debug_str:00000000000001a6 .LASF32
     /tmp/ccyPgUQ6.s:2482   .debug_str:00000000000005c5 .LASF31
     /tmp/ccyPgUQ6.s:2478   .debug_str:000000000000058c .LASF33
     /tmp/ccyPgUQ6.s:2452   .debug_str:0000000000000405 .LASF34
     /tmp/ccyPgUQ6.s:2374   .debug_str:000000000000018c .LASF75
     /tmp/ccyPgUQ6.s:2370   .debug_str:000000000000016e .LASF35
     /tmp/ccyPgUQ6.s:2394   .debug_str:0000000000000238 .LASF36
     /tmp/ccyPgUQ6.s:2454   .debug_str:0000000000000415 .LASF76
     /tmp/ccyPgUQ6.s:2410   .debug_str:00000000000002c1 .LASF77
     /tmp/ccyPgUQ6.s:2392   .debug_str:0000000000000233 .LASF37
     /tmp/ccyPgUQ6.s:2490   .debug_str:0000000000000609 .LASF38
     /tmp/ccyPgUQ6.s:2444   .debug_str:00000000000003bd .LASF39
     /tmp/ccyPgUQ6.s:2488   .debug_str:00000000000005f5 .LASF40
GAS LISTING /tmp/ccyPgUQ6.s 			page 12


     /tmp/ccyPgUQ6.s:2402   .debug_str:000000000000028a .LASF42
     /tmp/ccyPgUQ6.s:2412   .debug_str:00000000000002db .LASF78
     /tmp/ccyPgUQ6.s:2390   .debug_str:000000000000021b .LASF79
     /tmp/ccyPgUQ6.s:2414   .debug_str:00000000000002e5 .LASF41
     /tmp/ccyPgUQ6.s:2338   .debug_str:000000000000002f .LASF43
     /tmp/ccyPgUQ6.s:2422   .debug_str:000000000000032b .LASF44
     /tmp/ccyPgUQ6.s:2420   .debug_str:000000000000030c .LASF45
     /tmp/ccyPgUQ6.s:2426   .debug_str:0000000000000348 .LASF46
     /tmp/ccyPgUQ6.s:2364   .debug_str:0000000000000141 .LASF47
     /tmp/ccyPgUQ6.s:2494   .debug_str:0000000000000613 .LASF48
     /tmp/ccyPgUQ6.s:2462   .debug_str:0000000000000518 .LASF49
     /tmp/ccyPgUQ6.s:2470   .debug_str:0000000000000550 .LASF50
     /tmp/ccyPgUQ6.s:2450   .debug_str:00000000000003eb .LASF51
     /tmp/ccyPgUQ6.s:2366   .debug_str:000000000000015c .LASF52
     /tmp/ccyPgUQ6.s:2380   .debug_str:00000000000001d6 .LASF53
     /tmp/ccyPgUQ6.s:2388   .debug_str:0000000000000213 .LASF54
     /tmp/ccyPgUQ6.s:2396   .debug_str:0000000000000251 .LASF55
     /tmp/ccyPgUQ6.s:2486   .debug_str:00000000000005e4 .LASF56
     /tmp/ccyPgUQ6.s:2458   .debug_str:000000000000042d .LASF57
     /tmp/ccyPgUQ6.s:2352   .debug_str:00000000000000ba .LASF80
     /tmp/ccyPgUQ6.s:2350   .debug_str:0000000000000090 .LASF58
     /tmp/ccyPgUQ6.s:268    .text:0000000000000168 .LFB27
     /tmp/ccyPgUQ6.s:294    .text:000000000000019c .LFE27
     /tmp/ccyPgUQ6.s:284    .text:000000000000018c .LVL25
     /tmp/ccyPgUQ6.s:2440   .debug_str:000000000000038e .LASF59
     /tmp/ccyPgUQ6.s:9      .text:0000000000000000 .LFB26
     /tmp/ccyPgUQ6.s:53     .text:0000000000000040 .LFE26
     /tmp/ccyPgUQ6.s:2398   .debug_str:000000000000026b .LASF60
     /tmp/ccyPgUQ6.s:2386   .debug_str:0000000000000208 .LASF61
     /tmp/ccyPgUQ6.s:38     .text:000000000000002c .LBB19
     /tmp/ccyPgUQ6.s:49     .text:000000000000003c .LBE19
     /tmp/ccyPgUQ6.s:2124   .debug_loc:0000000000000000 .LLST0
     /tmp/ccyPgUQ6.s:2442   .debug_str:00000000000003b8 .LASF62
     /tmp/ccyPgUQ6.s:2474   .debug_str:0000000000000560 .LASF64
     /tmp/ccyPgUQ6.s:2344   .debug_str:0000000000000074 .LASF63
     /tmp/ccyPgUQ6.s:2358   .debug_str:00000000000000f9 .LASF65
     /tmp/ccyPgUQ6.s:152    .text:00000000000000bc .LFB15
     /tmp/ccyPgUQ6.s:263    .text:0000000000000168 .LFE15
     /tmp/ccyPgUQ6.s:2133   .debug_loc:000000000000002c .LLST5
     /tmp/ccyPgUQ6.s:169    .text:00000000000000d4 .LBB50
     /tmp/ccyPgUQ6.s:2312   .debug_ranges:0000000000000000 .Ldebug_ranges0
     /tmp/ccyPgUQ6.s:2155   .debug_loc:000000000000008b .LLST6
     /tmp/ccyPgUQ6.s:2170   .debug_loc:00000000000000d4 .LLST7
     /tmp/ccyPgUQ6.s:2185   .debug_loc:000000000000011c .LLST8
     /tmp/ccyPgUQ6.s:187    .text:00000000000000f0 .LBB52
     /tmp/ccyPgUQ6.s:195    .text:00000000000000fc .LBE52
     /tmp/ccyPgUQ6.s:2205   .debug_loc:0000000000000179 .LLST9
     /tmp/ccyPgUQ6.s:193    .text:00000000000000fc .LVL18
     /tmp/ccyPgUQ6.s:196    .text:00000000000000fc .LBB54
     /tmp/ccyPgUQ6.s:204    .text:0000000000000104 .LBE54
     /tmp/ccyPgUQ6.s:2213   .debug_loc:000000000000019d .LLST10
     /tmp/ccyPgUQ6.s:2220   .debug_loc:00000000000001c0 .LLST11
     /tmp/ccyPgUQ6.s:238    .text:0000000000000140 .LBB56
     /tmp/ccyPgUQ6.s:245    .text:000000000000014c .LBE56
     /tmp/ccyPgUQ6.s:2227   .debug_loc:00000000000001e3 .LLST12
     /tmp/ccyPgUQ6.s:243    .text:000000000000014c .LVL23
     /tmp/ccyPgUQ6.s:246    .text:000000000000014c .LBB58
GAS LISTING /tmp/ccyPgUQ6.s 			page 13


     /tmp/ccyPgUQ6.s:254    .text:0000000000000154 .LBE58
     /tmp/ccyPgUQ6.s:2235   .debug_loc:0000000000000207 .LLST13
     /tmp/ccyPgUQ6.s:2242   .debug_loc:000000000000022a .LLST14
     /tmp/ccyPgUQ6.s:59     .text:0000000000000040 .LFB14
     /tmp/ccyPgUQ6.s:146    .text:00000000000000bc .LFE14
     /tmp/ccyPgUQ6.s:74     .text:0000000000000054 .LBB28
     /tmp/ccyPgUQ6.s:2249   .debug_loc:000000000000024d .LLST1
     /tmp/ccyPgUQ6.s:2264   .debug_loc:0000000000000295 .LLST2
     /tmp/ccyPgUQ6.s:2281   .debug_loc:00000000000002e0 .LLST3
     /tmp/ccyPgUQ6.s:93     .text:0000000000000074 .LBB32
     /tmp/ccyPgUQ6.s:99     .text:000000000000007c .LBE32
     /tmp/ccyPgUQ6.s:2292   .debug_loc:0000000000000316 .LLST4
     /tmp/ccyPgUQ6.s:97     .text:000000000000007c .LVL6
     /tmp/ccyPgUQ6.s:37     .text:000000000000002c .LVL1
     /tmp/ccyPgUQ6.s:46     .text:000000000000003c .LVL2
     /tmp/ccyPgUQ6.s:155    .text:00000000000000bc .LVL11
     /tmp/ccyPgUQ6.s:191    .text:00000000000000f4 .LVL17
     /tmp/ccyPgUQ6.s:229    .text:0000000000000138 .LVL21
     /tmp/ccyPgUQ6.s:233    .text:0000000000000140 .LVL22
     /tmp/ccyPgUQ6.s:168    .text:00000000000000d4 .LVL12
     /tmp/ccyPgUQ6.s:217    .text:000000000000012c .LVL20
     /tmp/ccyPgUQ6.s:173    .text:00000000000000dc .LVL13
     /tmp/ccyPgUQ6.s:175    .text:00000000000000e0 .LVL14
     /tmp/ccyPgUQ6.s:186    .text:00000000000000f0 .LVL16
     /tmp/ccyPgUQ6.s:202    .text:0000000000000104 .LVL19
     /tmp/ccyPgUQ6.s:252    .text:0000000000000154 .LVL24
     /tmp/ccyPgUQ6.s:73     .text:0000000000000054 .LVL3
     /tmp/ccyPgUQ6.s:105    .text:0000000000000090 .LVL7
     /tmp/ccyPgUQ6.s:124    .text:00000000000000a8 .LVL8
     /tmp/ccyPgUQ6.s:140    .text:00000000000000b8 .LVL10
     /tmp/ccyPgUQ6.s:92     .text:0000000000000074 .LVL5
     /tmp/ccyPgUQ6.s:81     .text:0000000000000060 .LVL4
     /tmp/ccyPgUQ6.s:134    .text:00000000000000b4 .LVL9
     /tmp/ccyPgUQ6.s:313    .debug_info:0000000000000000 .Ldebug_info0
     /tmp/ccyPgUQ6.s:110    .text:0000000000000090 .LBE28
     /tmp/ccyPgUQ6.s:127    .text:00000000000000a8 .LBB37
     /tmp/ccyPgUQ6.s:142    .text:00000000000000b8 .LBE37
     /tmp/ccyPgUQ6.s:82     .text:0000000000000060 .LBB31
     /tmp/ccyPgUQ6.s:107    .text:0000000000000090 .LBE31
     /tmp/ccyPgUQ6.s:130    .text:00000000000000a8 .LBB34
     /tmp/ccyPgUQ6.s:136    .text:00000000000000b4 .LBE34
     /tmp/ccyPgUQ6.s:219    .text:000000000000012c .LBE50
     /tmp/ccyPgUQ6.s:236    .text:0000000000000140 .LBB61
     /tmp/ccyPgUQ6.s:261    .text:0000000000000168 .LBE61

UNDEFINED SYMBOLS
_ZN15MemoryAllocator7memFreeEPv
_ZN15MemoryAllocator8memAllocEm
