GAS LISTING /tmp/ccl8nh0H.s 			page 1


   1              		.file	"syscall_c.cpp"
   2              		.option pic
   3              		.option norelax
   4              		.text
   5              	.Ltext0:
   6              		.align	2
   7              		.globl	_Z9mem_allocm
   9              	_Z9mem_allocm:
  10              	.LFB51:
  11              		.file 1 "src/syscall_c.cpp"
   1:src/syscall_c.cpp **** 
   2:src/syscall_c.cpp **** #include "../h/syscall_c.hpp"
   3:src/syscall_c.cpp **** #include "../h/kodoviInstr.h"
   4:src/syscall_c.cpp **** #include "../h/printing.hpp"
   5:src/syscall_c.cpp **** #include "../h/riscv.hpp"
   6:src/syscall_c.cpp **** 
   7:src/syscall_c.cpp **** void* mem_alloc (size_t size){
  12              		.loc 1 7 30
  13              		.cfi_startproc
  14              	.LVL0:
  15 0000 130101FF 		addi	sp,sp,-16
  16              		.cfi_def_cfa_offset 16
  17 0004 23348100 		sd	s0,8(sp)
  18              		.cfi_offset 8, -8
  19 0008 13040101 		addi	s0,sp,16
  20              		.cfi_def_cfa 8, 0
   8:src/syscall_c.cpp **** 
   9:src/syscall_c.cpp ****     void* ret;
  21              		.loc 1 9 5
  10:src/syscall_c.cpp **** 
  11:src/syscall_c.cpp ****     //u c sloju argumenti od a0
  12:src/syscall_c.cpp ****    __asm__ volatile("mv a1,%0"::"r"(size)); //ubacim u a1 zbog abi dela
  22              		.loc 1 12 4
  23              		.loc 1 12 43 is_stmt 0
  24              	#APP
  25              	# 12 "src/syscall_c.cpp" 1
  13              	  // __asm__ volatile ("mv a1,a0"); //pokupim argument size i upisem u a1 za abi sloj
  14:src/syscall_c.cpp **** 
  15:src/syscall_c.cpp ****     __asm__ volatile ("mv a0,%0" : : "r"(MEMALLOC)); //upisi kod sistemskog poziva u reg a0
  26              		mv a1,a0
  27              	# 0 "" 2
  28              		.loc 1 15 5 is_stmt 1
  29              		.loc 1 15 52 is_stmt 0
  30              	#NO_APP
  31 0010 93071000 		li	a5,1
  32              	#APP
  33              	# 15 "src/syscall_c.cpp" 1
  16              	
  17:src/syscall_c.cpp ****     __asm__ volatile("ecall"); //prelazak u sistemski rezim
  34              		mv a0,a5
  35              	# 0 "" 2
  36              		.loc 1 17 5 is_stmt 1
  37              		.loc 1 17 30 is_stmt 0
  38              	# 17 "src/syscall_c.cpp" 1
  18              	
  19:src/syscall_c.cpp ****     __asm__ volatile ("mv %[ret], a0" : [ret] "=r"(ret)); //pokupim povratnu vrednost
  39              		ecall
GAS LISTING /tmp/ccl8nh0H.s 			page 2


  40              	# 0 "" 2
  41              		.loc 1 19 5 is_stmt 1
  42              		.loc 1 19 57 is_stmt 0
  43              	# 19 "src/syscall_c.cpp" 1
  20              	
  44              		mv a0, a0
  45              	# 0 "" 2
  46              	.LVL1:
  21:src/syscall_c.cpp ****     return ret;
  47              		.loc 1 21 5 is_stmt 1
  22:src/syscall_c.cpp **** 
  23:src/syscall_c.cpp **** 
  24:src/syscall_c.cpp **** }
  48              		.loc 1 24 1 is_stmt 0
  49              	#NO_APP
  50 0020 03348100 		ld	s0,8(sp)
  51              		.cfi_restore 8
  52              		.cfi_def_cfa 2, 16
  53 0024 13010101 		addi	sp,sp,16
  54              		.cfi_def_cfa_offset 0
  55 0028 67800000 		jr	ra
  56              		.cfi_endproc
  57              	.LFE51:
  59              		.align	2
  60              		.globl	_Z4killP3TCB
  62              	_Z4killP3TCB:
  63              	.LFB52:
  25:src/syscall_c.cpp **** 
  26:src/syscall_c.cpp **** void kill(thread_t t){
  64              		.loc 1 26 22 is_stmt 1
  65              		.cfi_startproc
  66              	.LVL2:
  67 002c 130101FF 		addi	sp,sp,-16
  68              		.cfi_def_cfa_offset 16
  69 0030 23348100 		sd	s0,8(sp)
  70              		.cfi_offset 8, -8
  71 0034 13040101 		addi	s0,sp,16
  72              		.cfi_def_cfa 8, 0
  27:src/syscall_c.cpp **** if(t==TCB::running){
  73              		.loc 1 27 1
  74              		.loc 1 27 5 is_stmt 0
  75 0038 97070000 		la	a5,_ZN3TCB7runningE
  75      83B70700 
  76 0040 83B70700 		ld	a5,0(a5)
  77              		.loc 1 27 1
  78 0044 638AA700 		beq	a5,a0,.L3
  28:src/syscall_c.cpp ****     return;
  29:src/syscall_c.cpp **** }
  30:src/syscall_c.cpp ****     __asm__ volatile("mv a1,a0");
  79              		.loc 1 30 5 is_stmt 1
  80              		.loc 1 30 33 is_stmt 0
  81              	#APP
  82              	# 30 "src/syscall_c.cpp" 1
  31              	    __asm__ volatile("mv a0,%0"::"r"(0x501));
  83              		mv a1,a0
  84              	# 0 "" 2
  85              		.loc 1 31 5 is_stmt 1
GAS LISTING /tmp/ccl8nh0H.s 			page 3


  86              		.loc 1 31 45 is_stmt 0
  87              	#NO_APP
  88 004c 93071050 		li	a5,1281
  89              	#APP
  90              	# 31 "src/syscall_c.cpp" 1
  32              	    __asm__ volatile("ecall");
  91              		mv a0,a5
  92              	# 0 "" 2
  93              		.loc 1 32 5 is_stmt 1
  94              		.loc 1 32 30 is_stmt 0
  95              	# 32 "src/syscall_c.cpp" 1
  33              	}
  96              		ecall
  97              	# 0 "" 2
  98              	#NO_APP
  99              	.L3:
 100              		.loc 1 33 1
 101 0058 03348100 		ld	s0,8(sp)
 102              		.cfi_restore 8
 103              		.cfi_def_cfa 2, 16
 104 005c 13010101 		addi	sp,sp,16
 105              		.cfi_def_cfa_offset 0
 106 0060 67800000 		jr	ra
 107              		.cfi_endproc
 108              	.LFE52:
 110              		.align	2
 111              		.globl	_Z11getThreadIdv
 113              	_Z11getThreadIdv:
 114              	.LFB53:
  34:src/syscall_c.cpp **** 
  35:src/syscall_c.cpp **** int getThreadId(){
 115              		.loc 1 35 18 is_stmt 1
 116              		.cfi_startproc
 117 0064 130101FF 		addi	sp,sp,-16
 118              		.cfi_def_cfa_offset 16
 119 0068 23348100 		sd	s0,8(sp)
 120              		.cfi_offset 8, -8
 121 006c 13040101 		addi	s0,sp,16
 122              		.cfi_def_cfa 8, 0
  36:src/syscall_c.cpp ****     __asm__ volatile("mv a0,%0"::"r"(0x500));
 123              		.loc 1 36 5
 124              		.loc 1 36 45 is_stmt 0
 125 0070 93070050 		li	a5,1280
 126              	#APP
 127              	# 36 "src/syscall_c.cpp" 1
  37              	    __asm__ volatile("ecall");
 128              		mv a0,a5
 129              	# 0 "" 2
 130              		.loc 1 37 5 is_stmt 1
 131              		.loc 1 37 30 is_stmt 0
 132              	# 37 "src/syscall_c.cpp" 1
  38              	    int id;
 133              		ecall
 134              	# 0 "" 2
 135              		.loc 1 38 5 is_stmt 1
  39:src/syscall_c.cpp ****     __asm__ volatile("mv %0,a0":"=r"(id));
 136              		.loc 1 39 5
GAS LISTING /tmp/ccl8nh0H.s 			page 4


 137              		.loc 1 39 42 is_stmt 0
 138              	# 39 "src/syscall_c.cpp" 1
  40              	    return id;
 139              		mv a0,a0
 140              	# 0 "" 2
 141              	.LVL3:
 142              		.loc 1 40 5 is_stmt 1
  41:src/syscall_c.cpp **** }
 143              		.loc 1 41 1 is_stmt 0
 144              	#NO_APP
 145 0080 1B050500 		sext.w	a0,a0
 146 0084 03348100 		ld	s0,8(sp)
 147              		.cfi_restore 8
 148              		.cfi_def_cfa 2, 16
 149 0088 13010101 		addi	sp,sp,16
 150              		.cfi_def_cfa_offset 0
 151 008c 67800000 		jr	ra
 152              		.cfi_endproc
 153              	.LFE53:
 155              		.align	2
 156              		.globl	_Z4joinP3TCB
 158              	_Z4joinP3TCB:
 159              	.LFB54:
  42:src/syscall_c.cpp **** 
  43:src/syscall_c.cpp **** void join(thread_t t){
 160              		.loc 1 43 22 is_stmt 1
 161              		.cfi_startproc
 162              	.LVL4:
 163 0090 130101FF 		addi	sp,sp,-16
 164              		.cfi_def_cfa_offset 16
 165 0094 23348100 		sd	s0,8(sp)
 166              		.cfi_offset 8, -8
 167 0098 13040101 		addi	s0,sp,16
 168              		.cfi_def_cfa 8, 0
  44:src/syscall_c.cpp ****     __asm__ volatile("mv a1,a0");
 169              		.loc 1 44 5
 170              		.loc 1 44 33 is_stmt 0
 171              	#APP
 172              	# 44 "src/syscall_c.cpp" 1
  45              	    __asm__ volatile("mv a0,%0"::"r"(0x61));
 173              		mv a1,a0
 174              	# 0 "" 2
 175              		.loc 1 45 5 is_stmt 1
 176              		.loc 1 45 44 is_stmt 0
 177              	#NO_APP
 178 00a0 93071006 		li	a5,97
 179              	#APP
 180              	# 45 "src/syscall_c.cpp" 1
  46              	    __asm__ volatile("ecall");
 181              		mv a0,a5
 182              	# 0 "" 2
 183              		.loc 1 46 5 is_stmt 1
 184              		.loc 1 46 30 is_stmt 0
 185              	# 46 "src/syscall_c.cpp" 1
  47              	}
 186              		ecall
 187              	# 0 "" 2
GAS LISTING /tmp/ccl8nh0H.s 			page 5


 188              		.loc 1 47 1
 189              	#NO_APP
 190 00ac 03348100 		ld	s0,8(sp)
 191              		.cfi_restore 8
 192              		.cfi_def_cfa 2, 16
 193 00b0 13010101 		addi	sp,sp,16
 194              		.cfi_def_cfa_offset 0
 195 00b4 67800000 		jr	ra
 196              		.cfi_endproc
 197              	.LFE54:
 199              		.align	2
 200              		.globl	_Z8mem_freePv
 202              	_Z8mem_freePv:
 203              	.LFB55:
  48:src/syscall_c.cpp **** 
  49:src/syscall_c.cpp **** int mem_free (void* addr){
 204              		.loc 1 49 26 is_stmt 1
 205              		.cfi_startproc
 206              	.LVL5:
 207 00b8 130101FF 		addi	sp,sp,-16
 208              		.cfi_def_cfa_offset 16
 209 00bc 23348100 		sd	s0,8(sp)
 210              		.cfi_offset 8, -8
 211 00c0 13040101 		addi	s0,sp,16
 212              		.cfi_def_cfa 8, 0
  50:src/syscall_c.cpp **** 
  51:src/syscall_c.cpp **** 
  52:src/syscall_c.cpp ****     int ret;
 213              		.loc 1 52 5
  53:src/syscall_c.cpp **** 
  54:src/syscall_c.cpp ****   // __asm__ volatile("mv a1,%0"::"r"(addr)); //ubacim argument u a1 zbog abi dela
  55:src/syscall_c.cpp ****   __asm__ volatile("mv a1,a0"); //pokupim argument i upisem u a1 za abi deo
 214              		.loc 1 55 3
 215              		.loc 1 55 31 is_stmt 0
 216              	#APP
 217              	# 55 "src/syscall_c.cpp" 1
  56              	
  57:src/syscall_c.cpp ****     __asm__ volatile ("mv a0,%0": : "r"(MEMFREE)); //kod sistemskog poziva u a0
 218              		mv a1,a0
 219              	# 0 "" 2
 220              		.loc 1 57 5 is_stmt 1
 221              		.loc 1 57 50 is_stmt 0
 222              	#NO_APP
 223 00c8 93072000 		li	a5,2
 224              	#APP
 225              	# 57 "src/syscall_c.cpp" 1
  58              	
  59:src/syscall_c.cpp ****     __asm__ volatile ("ecall");
 226              		mv a0,a5
 227              	# 0 "" 2
 228              		.loc 1 59 5 is_stmt 1
 229              		.loc 1 59 31 is_stmt 0
 230              	# 59 "src/syscall_c.cpp" 1
  60              	
  61:src/syscall_c.cpp ****     __asm__ volatile ("mv %[ret], a0" : [ret] "=r"(ret)); //povratna vrednost
 231              		ecall
 232              	# 0 "" 2
GAS LISTING /tmp/ccl8nh0H.s 			page 6


 233              		.loc 1 61 5 is_stmt 1
 234              		.loc 1 61 57 is_stmt 0
 235              	# 61 "src/syscall_c.cpp" 1
  62              	
 236              		mv a0, a0
 237              	# 0 "" 2
 238              	.LVL6:
  63:src/syscall_c.cpp ****     return ret;
 239              		.loc 1 63 5 is_stmt 1
  64:src/syscall_c.cpp **** 
  65:src/syscall_c.cpp **** }
 240              		.loc 1 65 1 is_stmt 0
 241              	#NO_APP
 242 00d8 1B050500 		sext.w	a0,a0
 243 00dc 03348100 		ld	s0,8(sp)
 244              		.cfi_restore 8
 245              		.cfi_def_cfa 2, 16
 246 00e0 13010101 		addi	sp,sp,16
 247              		.cfi_def_cfa_offset 0
 248 00e4 67800000 		jr	ra
 249              		.cfi_endproc
 250              	.LFE55:
 252              		.align	2
 253              		.globl	_Z13thread_createPP3TCBPFvPvES2_
 255              	_Z13thread_createPP3TCBPFvPvES2_:
 256              	.LFB56:
  66:src/syscall_c.cpp **** int thread_create (thread_t* handle, void(*start_routine)(void*), void* arg){
 257              		.loc 1 66 77 is_stmt 1
 258              		.cfi_startproc
 259              	.LVL7:
 260 00e8 130101FF 		addi	sp,sp,-16
 261              		.cfi_def_cfa_offset 16
 262 00ec 23348100 		sd	s0,8(sp)
 263              		.cfi_offset 8, -8
 264 00f0 13040101 		addi	s0,sp,16
 265              		.cfi_def_cfa 8, 0
  67:src/syscall_c.cpp **** 
  68:src/syscall_c.cpp ****     int ret;
 266              		.loc 1 68 5
  69:src/syscall_c.cpp ****     asm volatile("mv a3, a2");
 267              		.loc 1 69 5
 268              		.loc 1 69 30 is_stmt 0
 269              	#APP
 270              	# 69 "src/syscall_c.cpp" 1
  70              	    asm volatile("mv a2, a1");
 271              		mv a3, a2
 272              	# 0 "" 2
 273              		.loc 1 70 5 is_stmt 1
 274              		.loc 1 70 30 is_stmt 0
 275              	# 70 "src/syscall_c.cpp" 1
  71              	    asm volatile("mv a1, a0");
 276              		mv a2, a1
 277              	# 0 "" 2
 278              		.loc 1 71 5 is_stmt 1
 279              		.loc 1 71 30 is_stmt 0
 280              	# 71 "src/syscall_c.cpp" 1
  72              	    asm volatile("mv a0, %0" : :  "r" (THRCRT));
GAS LISTING /tmp/ccl8nh0H.s 			page 7


 281              		mv a1, a0
 282              	# 0 "" 2
 283              		.loc 1 72 5 is_stmt 1
 284              		.loc 1 72 48 is_stmt 0
 285              	#NO_APP
 286 0100 9307B000 		li	a5,11
 287              	#APP
 288              	# 72 "src/syscall_c.cpp" 1
  73              	    __asm__ volatile ("ecall");
 289              		mv a0, a5
 290              	# 0 "" 2
 291              		.loc 1 73 5 is_stmt 1
 292              		.loc 1 73 31 is_stmt 0
 293              	# 73 "src/syscall_c.cpp" 1
  74              	    __asm__ volatile ("mv %[ret], a0" : [ret] "=r"(ret));
 294              		ecall
 295              	# 0 "" 2
 296              		.loc 1 74 5 is_stmt 1
 297              		.loc 1 74 57 is_stmt 0
 298              	# 74 "src/syscall_c.cpp" 1
  75              	    return ret;
 299              		mv a0, a0
 300              	# 0 "" 2
 301              	.LVL8:
 302              		.loc 1 75 5 is_stmt 1
  76:src/syscall_c.cpp **** }
 303              		.loc 1 76 1 is_stmt 0
 304              	#NO_APP
 305 0110 1B050500 		sext.w	a0,a0
 306 0114 03348100 		ld	s0,8(sp)
 307              		.cfi_restore 8
 308              		.cfi_def_cfa 2, 16
 309 0118 13010101 		addi	sp,sp,16
 310              		.cfi_def_cfa_offset 0
 311 011c 67800000 		jr	ra
 312              		.cfi_endproc
 313              	.LFE56:
 315              		.align	2
 316              		.globl	_Z15thread_dispatchv
 318              	_Z15thread_dispatchv:
 319              	.LFB57:
  77:src/syscall_c.cpp **** void thread_dispatch (){
 320              		.loc 1 77 24 is_stmt 1
 321              		.cfi_startproc
 322 0120 130101FF 		addi	sp,sp,-16
 323              		.cfi_def_cfa_offset 16
 324 0124 23348100 		sd	s0,8(sp)
 325              		.cfi_offset 8, -8
 326 0128 13040101 		addi	s0,sp,16
 327              		.cfi_def_cfa 8, 0
  78:src/syscall_c.cpp **** 
  79:src/syscall_c.cpp ****     __asm__ volatile("mv a0, %0" : : "r"(THRDSP)); //kod sistemskog poziva
 328              		.loc 1 79 5
 329              		.loc 1 79 50 is_stmt 0
 330 012c 9307D000 		li	a5,13
 331              	#APP
 332              	# 79 "src/syscall_c.cpp" 1
GAS LISTING /tmp/ccl8nh0H.s 			page 8


  80              	    __asm__ volatile("ecall");
 333              		mv a0, a5
 334              	# 0 "" 2
 335              		.loc 1 80 5 is_stmt 1
 336              		.loc 1 80 30 is_stmt 0
 337              	# 80 "src/syscall_c.cpp" 1
  81              	}
 338              		ecall
 339              	# 0 "" 2
 340              		.loc 1 81 1
 341              	#NO_APP
 342 0138 03348100 		ld	s0,8(sp)
 343              		.cfi_restore 8
 344              		.cfi_def_cfa 2, 16
 345 013c 13010101 		addi	sp,sp,16
 346              		.cfi_def_cfa_offset 0
 347 0140 67800000 		jr	ra
 348              		.cfi_endproc
 349              	.LFE57:
 351              		.align	2
 352              		.globl	_Z11thread_exitv
 354              	_Z11thread_exitv:
 355              	.LFB58:
  82:src/syscall_c.cpp **** int thread_exit (){
 356              		.loc 1 82 19 is_stmt 1
 357              		.cfi_startproc
 358 0144 130101FF 		addi	sp,sp,-16
 359              		.cfi_def_cfa_offset 16
 360 0148 23348100 		sd	s0,8(sp)
 361              		.cfi_offset 8, -8
 362 014c 13040101 		addi	s0,sp,16
 363              		.cfi_def_cfa 8, 0
  83:src/syscall_c.cpp ****     int ret;
 364              		.loc 1 83 5
  84:src/syscall_c.cpp ****     asm volatile("mv a0, %0" : :  "r" (THREXIT));
 365              		.loc 1 84 5
 366              		.loc 1 84 49 is_stmt 0
 367 0150 9307C000 		li	a5,12
 368              	#APP
 369              	# 84 "src/syscall_c.cpp" 1
  85              	    __asm__ volatile ("ecall");
 370              		mv a0, a5
 371              	# 0 "" 2
 372              		.loc 1 85 5 is_stmt 1
 373              		.loc 1 85 31 is_stmt 0
 374              	# 85 "src/syscall_c.cpp" 1
  86              	    __asm__ volatile ("mv %[ret], a0" : [ret] "=r"(ret));
 375              		ecall
 376              	# 0 "" 2
 377              		.loc 1 86 5 is_stmt 1
 378              		.loc 1 86 57 is_stmt 0
 379              	# 86 "src/syscall_c.cpp" 1
  87              	    return ret;
 380              		mv a0, a0
 381              	# 0 "" 2
 382              	.LVL9:
 383              		.loc 1 87 5 is_stmt 1
GAS LISTING /tmp/ccl8nh0H.s 			page 9


  88:src/syscall_c.cpp **** 
  89:src/syscall_c.cpp **** }
 384              		.loc 1 89 1 is_stmt 0
 385              	#NO_APP
 386 0160 1B050500 		sext.w	a0,a0
 387 0164 03348100 		ld	s0,8(sp)
 388              		.cfi_restore 8
 389              		.cfi_def_cfa 2, 16
 390 0168 13010101 		addi	sp,sp,16
 391              		.cfi_def_cfa_offset 0
 392 016c 67800000 		jr	ra
 393              		.cfi_endproc
 394              	.LFE58:
 396              		.align	2
 397              		.globl	_Z4initv
 399              	_Z4initv:
 400              	.LFB59:
  90:src/syscall_c.cpp **** 
  91:src/syscall_c.cpp **** void init(){
 401              		.loc 1 91 12 is_stmt 1
 402              		.cfi_startproc
 403 0170 130101FF 		addi	sp,sp,-16
 404              		.cfi_def_cfa_offset 16
 405 0174 23348100 		sd	s0,8(sp)
 406              		.cfi_offset 8, -8
 407 0178 13040101 		addi	s0,sp,16
 408              		.cfi_def_cfa 8, 0
  92:src/syscall_c.cpp ****     __asm__ volatile("mv a0,%0"::"r"(INIT));
 409              		.loc 1 92 5
 410              		.loc 1 92 44 is_stmt 0
 411 017c 9307C003 		li	a5,60
 412              	#APP
 413              	# 92 "src/syscall_c.cpp" 1
  93              	    __asm__ volatile("ecall");
 414              		mv a0,a5
 415              	# 0 "" 2
 416              		.loc 1 93 5 is_stmt 1
 417              		.loc 1 93 30 is_stmt 0
 418              	# 93 "src/syscall_c.cpp" 1
  94              	}
 419              		ecall
 420              	# 0 "" 2
 421              		.loc 1 94 1
 422              	#NO_APP
 423 0188 03348100 		ld	s0,8(sp)
 424              		.cfi_restore 8
 425              		.cfi_def_cfa 2, 16
 426 018c 13010101 		addi	sp,sp,16
 427              		.cfi_def_cfa_offset 0
 428 0190 67800000 		jr	ra
 429              		.cfi_endproc
 430              	.LFE59:
 432              		.align	2
 433              		.globl	_Z4exitv
 435              	_Z4exitv:
 436              	.LFB60:
  95:src/syscall_c.cpp **** 
GAS LISTING /tmp/ccl8nh0H.s 			page 10


  96:src/syscall_c.cpp **** void exit(){
 437              		.loc 1 96 12 is_stmt 1
 438              		.cfi_startproc
 439 0194 130101FF 		addi	sp,sp,-16
 440              		.cfi_def_cfa_offset 16
 441 0198 23348100 		sd	s0,8(sp)
 442              		.cfi_offset 8, -8
 443 019c 13040101 		addi	s0,sp,16
 444              		.cfi_def_cfa 8, 0
  97:src/syscall_c.cpp ****     __asm__ volatile("mv a0,%0"::"r"(EXIT));
 445              		.loc 1 97 5
 446              		.loc 1 97 44 is_stmt 0
 447 01a0 93076004 		li	a5,70
 448              	#APP
 449              	# 97 "src/syscall_c.cpp" 1
  98              	    __asm__ volatile("ecall");
 450              		mv a0,a5
 451              	# 0 "" 2
 452              		.loc 1 98 5 is_stmt 1
 453              		.loc 1 98 30 is_stmt 0
 454              	# 98 "src/syscall_c.cpp" 1
  99              	}
 455              		ecall
 456              	# 0 "" 2
 457              		.loc 1 99 1
 458              	#NO_APP
 459 01ac 03348100 		ld	s0,8(sp)
 460              		.cfi_restore 8
 461              		.cfi_def_cfa 2, 16
 462 01b0 13010101 		addi	sp,sp,16
 463              		.cfi_def_cfa_offset 0
 464 01b4 67800000 		jr	ra
 465              		.cfi_endproc
 466              	.LFE60:
 468              		.align	2
 469              		.globl	_Z4getcv
 471              	_Z4getcv:
 472              	.LFB61:
 100:src/syscall_c.cpp **** char getc(){
 473              		.loc 1 100 12 is_stmt 1
 474              		.cfi_startproc
 475 01b8 130101FF 		addi	sp,sp,-16
 476              		.cfi_def_cfa_offset 16
 477 01bc 23348100 		sd	s0,8(sp)
 478              		.cfi_offset 8, -8
 479 01c0 13040101 		addi	s0,sp,16
 480              		.cfi_def_cfa 8, 0
 101:src/syscall_c.cpp **** 
 102:src/syscall_c.cpp ****    char c;
 481              		.loc 1 102 4
 103:src/syscall_c.cpp ****     __asm__ volatile("mv a0,%0": :"r"(GETC));
 482              		.loc 1 103 5
 483              		.loc 1 103 45 is_stmt 0
 484 01c4 93079002 		li	a5,41
 485              	#APP
 486              	# 103 "src/syscall_c.cpp" 1
 104              	    __asm__ volatile("ecall");
GAS LISTING /tmp/ccl8nh0H.s 			page 11


 487              		mv a0,a5
 488              	# 0 "" 2
 489              		.loc 1 104 5 is_stmt 1
 490              		.loc 1 104 30 is_stmt 0
 491              	# 104 "src/syscall_c.cpp" 1
 105              	    __asm__ volatile ("mv %[c], a0" : [c] "=r"(c));
 492              		ecall
 493              	# 0 "" 2
 494              		.loc 1 105 5 is_stmt 1
 495              		.loc 1 105 51 is_stmt 0
 496              	# 105 "src/syscall_c.cpp" 1
 106              	    return c;
 497              		mv a0, a0
 498              	# 0 "" 2
 499              	.LVL10:
 500              		.loc 1 106 5 is_stmt 1
 107:src/syscall_c.cpp **** 
 108:src/syscall_c.cpp **** 
 109:src/syscall_c.cpp **** }
 501              		.loc 1 109 1 is_stmt 0
 502              	#NO_APP
 503 01d4 1375F50F 		andi	a0,a0,0xff
 504 01d8 03348100 		ld	s0,8(sp)
 505              		.cfi_restore 8
 506              		.cfi_def_cfa 2, 16
 507 01dc 13010101 		addi	sp,sp,16
 508              		.cfi_def_cfa_offset 0
 509 01e0 67800000 		jr	ra
 510              		.cfi_endproc
 511              	.LFE61:
 513              		.align	2
 514              		.globl	_Z4putcc
 516              	_Z4putcc:
 517              	.LFB62:
 110:src/syscall_c.cpp **** void putc(char c){
 518              		.loc 1 110 18 is_stmt 1
 519              		.cfi_startproc
 520              	.LVL11:
 521 01e4 130101FF 		addi	sp,sp,-16
 522              		.cfi_def_cfa_offset 16
 523 01e8 23348100 		sd	s0,8(sp)
 524              		.cfi_offset 8, -8
 525 01ec 13040101 		addi	s0,sp,16
 526              		.cfi_def_cfa 8, 0
 111:src/syscall_c.cpp **** 
 112:src/syscall_c.cpp ****     __asm__ volatile("mv a1,a0");
 527              		.loc 1 112 5
 528              		.loc 1 112 33 is_stmt 0
 529              	#APP
 530              	# 112 "src/syscall_c.cpp" 1
 113              	    __asm__ volatile("mv a0,%0": : "r"(PUTC));
 531              		mv a1,a0
 532              	# 0 "" 2
 533              		.loc 1 113 5 is_stmt 1
 534              		.loc 1 113 46 is_stmt 0
 535              	#NO_APP
 536 01f4 9307A002 		li	a5,42
GAS LISTING /tmp/ccl8nh0H.s 			page 12


 537              	#APP
 538              	# 113 "src/syscall_c.cpp" 1
 114              	    __asm__ volatile("ecall");
 539              		mv a0,a5
 540              	# 0 "" 2
 541              		.loc 1 114 5 is_stmt 1
 542              		.loc 1 114 30 is_stmt 0
 543              	# 114 "src/syscall_c.cpp" 1
 115              	
 116:src/syscall_c.cpp **** 
 117:src/syscall_c.cpp **** }
 544              		ecall
 545              	# 0 "" 2
 546              		.loc 1 117 1
 547              	#NO_APP
 548 0200 03348100 		ld	s0,8(sp)
 549              		.cfi_restore 8
 550              		.cfi_def_cfa 2, 16
 551 0204 13010101 		addi	sp,sp,16
 552              		.cfi_def_cfa_offset 0
 553 0208 67800000 		jr	ra
 554              		.cfi_endproc
 555              	.LFE62:
 557              		.align	2
 558              		.globl	_Z8sem_openPP3SCBj
 560              	_Z8sem_openPP3SCBj:
 561              	.LFB63:
 118:src/syscall_c.cpp **** 
 119:src/syscall_c.cpp **** int sem_open (sem_t* handle, unsigned init){
 562              		.loc 1 119 44 is_stmt 1
 563              		.cfi_startproc
 564              	.LVL12:
 565 020c 130101FF 		addi	sp,sp,-16
 566              		.cfi_def_cfa_offset 16
 567 0210 23348100 		sd	s0,8(sp)
 568              		.cfi_offset 8, -8
 569 0214 13040101 		addi	s0,sp,16
 570              		.cfi_def_cfa 8, 0
 120:src/syscall_c.cpp **** 
 121:src/syscall_c.cpp **** 
 122:src/syscall_c.cpp ****     int ret;
 571              		.loc 1 122 5
 123:src/syscall_c.cpp **** 
 124:src/syscall_c.cpp ****     __asm__ volatile("mv a2,a1"); //uzimanje argumenata
 572              		.loc 1 124 5
 573              		.loc 1 124 33 is_stmt 0
 574              	#APP
 575              	# 124 "src/syscall_c.cpp" 1
 125              	    __asm__ volatile("mv a1,a0");
 576              		mv a2,a1
 577              	# 0 "" 2
 578              		.loc 1 125 5 is_stmt 1
 579              		.loc 1 125 33 is_stmt 0
 580              	# 125 "src/syscall_c.cpp" 1
 126              	    __asm__ volatile("mv a0, %0": : "r"(SEMOPEN));
 581              		mv a1,a0
 582              	# 0 "" 2
GAS LISTING /tmp/ccl8nh0H.s 			page 13


 583              		.loc 1 126 5 is_stmt 1
 584              		.loc 1 126 50 is_stmt 0
 585              	#NO_APP
 586 0220 93075001 		li	a5,21
 587              	#APP
 588              	# 126 "src/syscall_c.cpp" 1
 127              	
 128:src/syscall_c.cpp ****     __asm__ volatile("ecall");
 589              		mv a0, a5
 590              	# 0 "" 2
 591              		.loc 1 128 5 is_stmt 1
 592              		.loc 1 128 30 is_stmt 0
 593              	# 128 "src/syscall_c.cpp" 1
 129              	
 130:src/syscall_c.cpp ****     __asm__ volatile ("mv %[ret], a0" : [ret] "=r"(ret));
 594              		ecall
 595              	# 0 "" 2
 596              		.loc 1 130 5 is_stmt 1
 597              		.loc 1 130 57 is_stmt 0
 598              	# 130 "src/syscall_c.cpp" 1
 131              	    return ret;
 599              		mv a0, a0
 600              	# 0 "" 2
 601              	.LVL13:
 602              		.loc 1 131 5 is_stmt 1
 132:src/syscall_c.cpp **** 
 133:src/syscall_c.cpp **** }
 603              		.loc 1 133 1 is_stmt 0
 604              	#NO_APP
 605 0230 1B050500 		sext.w	a0,a0
 606 0234 03348100 		ld	s0,8(sp)
 607              		.cfi_restore 8
 608              		.cfi_def_cfa 2, 16
 609 0238 13010101 		addi	sp,sp,16
 610              		.cfi_def_cfa_offset 0
 611 023c 67800000 		jr	ra
 612              		.cfi_endproc
 613              	.LFE63:
 615              		.align	2
 616              		.globl	_Z9sem_closeP3SCB
 618              	_Z9sem_closeP3SCB:
 619              	.LFB64:
 134:src/syscall_c.cpp **** int sem_close (sem_t handle) {
 620              		.loc 1 134 30 is_stmt 1
 621              		.cfi_startproc
 622              	.LVL14:
 623 0240 130101FF 		addi	sp,sp,-16
 624              		.cfi_def_cfa_offset 16
 625 0244 23348100 		sd	s0,8(sp)
 626              		.cfi_offset 8, -8
 627 0248 13040101 		addi	s0,sp,16
 628              		.cfi_def_cfa 8, 0
 135:src/syscall_c.cpp **** 
 136:src/syscall_c.cpp ****     int ret;
 629              		.loc 1 136 5
 137:src/syscall_c.cpp ****     __asm__ volatile("mv a1,a0");
 630              		.loc 1 137 5
GAS LISTING /tmp/ccl8nh0H.s 			page 14


 631              		.loc 1 137 33 is_stmt 0
 632              	#APP
 633              	# 137 "src/syscall_c.cpp" 1
 138              	    __asm__ volatile("mv a0,%0": : "r"(SEMCLOSE));
 634              		mv a1,a0
 635              	# 0 "" 2
 636              		.loc 1 138 5 is_stmt 1
 637              		.loc 1 138 50 is_stmt 0
 638              	#NO_APP
 639 0250 93076001 		li	a5,22
 640              	#APP
 641              	# 138 "src/syscall_c.cpp" 1
 139              	    __asm__ volatile("ecall");
 642              		mv a0,a5
 643              	# 0 "" 2
 644              		.loc 1 139 5 is_stmt 1
 645              		.loc 1 139 30 is_stmt 0
 646              	# 139 "src/syscall_c.cpp" 1
 140              	    __asm__ volatile ("mv %[ret], a0" : [ret] "=r"(ret));
 647              		ecall
 648              	# 0 "" 2
 649              		.loc 1 140 5 is_stmt 1
 650              		.loc 1 140 57 is_stmt 0
 651              	# 140 "src/syscall_c.cpp" 1
 141              	    return ret;
 652              		mv a0, a0
 653              	# 0 "" 2
 654              	.LVL15:
 655              		.loc 1 141 5 is_stmt 1
 142:src/syscall_c.cpp **** 
 143:src/syscall_c.cpp **** }
 656              		.loc 1 143 1 is_stmt 0
 657              	#NO_APP
 658 0260 1B050500 		sext.w	a0,a0
 659 0264 03348100 		ld	s0,8(sp)
 660              		.cfi_restore 8
 661              		.cfi_def_cfa 2, 16
 662 0268 13010101 		addi	sp,sp,16
 663              		.cfi_def_cfa_offset 0
 664 026c 67800000 		jr	ra
 665              		.cfi_endproc
 666              	.LFE64:
 668              		.align	2
 669              		.globl	_Z8sem_waitP3SCB
 671              	_Z8sem_waitP3SCB:
 672              	.LFB65:
 144:src/syscall_c.cpp **** int sem_wait (sem_t id) {
 673              		.loc 1 144 25 is_stmt 1
 674              		.cfi_startproc
 675              	.LVL16:
 676 0270 130101FF 		addi	sp,sp,-16
 677              		.cfi_def_cfa_offset 16
 678 0274 23348100 		sd	s0,8(sp)
 679              		.cfi_offset 8, -8
 680 0278 13040101 		addi	s0,sp,16
 681              		.cfi_def_cfa 8, 0
 145:src/syscall_c.cpp **** 
GAS LISTING /tmp/ccl8nh0H.s 			page 15


 146:src/syscall_c.cpp ****     int ret;
 682              		.loc 1 146 5
 147:src/syscall_c.cpp ****     __asm__ volatile("mv a1,a0");
 683              		.loc 1 147 5
 684              		.loc 1 147 33 is_stmt 0
 685              	#APP
 686              	# 147 "src/syscall_c.cpp" 1
 148              	    __asm__ volatile("mv a0,%0": : "r"(SEMWAIT));
 687              		mv a1,a0
 688              	# 0 "" 2
 689              		.loc 1 148 5 is_stmt 1
 690              		.loc 1 148 49 is_stmt 0
 691              	#NO_APP
 692 0280 93077001 		li	a5,23
 693              	#APP
 694              	# 148 "src/syscall_c.cpp" 1
 149              	    __asm__ volatile("ecall");
 695              		mv a0,a5
 696              	# 0 "" 2
 697              		.loc 1 149 5 is_stmt 1
 698              		.loc 1 149 30 is_stmt 0
 699              	# 149 "src/syscall_c.cpp" 1
 150              	    __asm__ volatile ("mv %[ret], a0" : [ret] "=r"(ret));
 700              		ecall
 701              	# 0 "" 2
 702              		.loc 1 150 5 is_stmt 1
 703              		.loc 1 150 57 is_stmt 0
 704              	# 150 "src/syscall_c.cpp" 1
 151              	    return ret;
 705              		mv a0, a0
 706              	# 0 "" 2
 707              	.LVL17:
 708              		.loc 1 151 5 is_stmt 1
 152:src/syscall_c.cpp **** }
 709              		.loc 1 152 1 is_stmt 0
 710              	#NO_APP
 711 0290 1B050500 		sext.w	a0,a0
 712 0294 03348100 		ld	s0,8(sp)
 713              		.cfi_restore 8
 714              		.cfi_def_cfa 2, 16
 715 0298 13010101 		addi	sp,sp,16
 716              		.cfi_def_cfa_offset 0
 717 029c 67800000 		jr	ra
 718              		.cfi_endproc
 719              	.LFE65:
 721              		.align	2
 722              		.globl	_Z10sem_signalP3SCB
 724              	_Z10sem_signalP3SCB:
 725              	.LFB66:
 153:src/syscall_c.cpp **** int sem_signal (sem_t id) {
 726              		.loc 1 153 27 is_stmt 1
 727              		.cfi_startproc
 728              	.LVL18:
 729 02a0 130101FF 		addi	sp,sp,-16
 730              		.cfi_def_cfa_offset 16
 731 02a4 23348100 		sd	s0,8(sp)
 732              		.cfi_offset 8, -8
GAS LISTING /tmp/ccl8nh0H.s 			page 16


 733 02a8 13040101 		addi	s0,sp,16
 734              		.cfi_def_cfa 8, 0
 154:src/syscall_c.cpp **** 
 155:src/syscall_c.cpp ****     int ret;
 735              		.loc 1 155 5
 156:src/syscall_c.cpp ****     __asm__ volatile("mv a1,a0");
 736              		.loc 1 156 5
 737              		.loc 1 156 33 is_stmt 0
 738              	#APP
 739              	# 156 "src/syscall_c.cpp" 1
 157              	    __asm__ volatile("mv a0,%0": : "r"(SEMSIGNAL));
 740              		mv a1,a0
 741              	# 0 "" 2
 742              		.loc 1 157 5 is_stmt 1
 743              		.loc 1 157 51 is_stmt 0
 744              	#NO_APP
 745 02b0 93078001 		li	a5,24
 746              	#APP
 747              	# 157 "src/syscall_c.cpp" 1
 158              	    __asm__ volatile("ecall");
 748              		mv a0,a5
 749              	# 0 "" 2
 750              		.loc 1 158 5 is_stmt 1
 751              		.loc 1 158 30 is_stmt 0
 752              	# 158 "src/syscall_c.cpp" 1
 159              	    __asm__ volatile ("mv %[ret], a0" : [ret] "=r"(ret));
 753              		ecall
 754              	# 0 "" 2
 755              		.loc 1 159 5 is_stmt 1
 756              		.loc 1 159 57 is_stmt 0
 757              	# 159 "src/syscall_c.cpp" 1
 160              	    return ret;
 758              		mv a0, a0
 759              	# 0 "" 2
 760              	.LVL19:
 761              		.loc 1 160 5 is_stmt 1
 161:src/syscall_c.cpp **** }
 762              		.loc 1 161 1 is_stmt 0
 763              	#NO_APP
 764 02c0 1B050500 		sext.w	a0,a0
 765 02c4 03348100 		ld	s0,8(sp)
 766              		.cfi_restore 8
 767              		.cfi_def_cfa 2, 16
 768 02c8 13010101 		addi	sp,sp,16
 769              		.cfi_def_cfa_offset 0
 770 02cc 67800000 		jr	ra
 771              		.cfi_endproc
 772              	.LFE66:
 774              	.Letext0:
 775              		.file 2 "src/../h/../h/../lib/hw.h"
 776              		.file 3 "src/../h/../h/../h/syscall_cpp.hpp"
 777              		.file 4 "src/../h/../h/SCB.hpp"
 778              		.file 5 "src/../h/../h/tcb.hpp"
 779              		.file 6 "src/../h/../h/queue.hpp"
 780              		.file 7 "src/../h/syscall_c.hpp"
GAS LISTING /tmp/ccl8nh0H.s 			page 17

