GAS LISTING /tmp/ccB2SuJH.s 			page 1


   1              		.file	"tcb.cpp"
   2              		.option pic
   3              		.option norelax
   4              		.text
   5              	.Ltext0:
   6              		.align	2
   7              		.globl	_ZN3TCB13threadWrapperEv
   9              	_ZN3TCB13threadWrapperEv:
  10              	.LFB63:
  11              		.file 1 "src/tcb.cpp"
   1:src/tcb.cpp   **** 
   2:src/tcb.cpp   **** #include "../h/printing.hpp"
   3:src/tcb.cpp   **** #include "../h/scheduler.hpp"
   4:src/tcb.cpp   **** #include "../h/riscv.hpp"
   5:src/tcb.cpp   **** 
   6:src/tcb.cpp   **** TCB *TCB::running = nullptr;
   7:src/tcb.cpp   **** static int ID=0;
   8:src/tcb.cpp   **** 
   9:src/tcb.cpp   **** TCB::TCB(Body body,  void *arg,uint64*stack) {
  10:src/tcb.cpp   **** 
  11:src/tcb.cpp   ****     this->body=body;
  12:src/tcb.cpp   ****     this->arg=arg;
  13:src/tcb.cpp   ****     created=true;
  14:src/tcb.cpp   ****     finished=false;
  15:src/tcb.cpp   ****     blocked=false;
  16:src/tcb.cpp   ****     id=++ID;
  17:src/tcb.cpp   **** 
  18:src/tcb.cpp   ****    this->stack=stack;
  19:src/tcb.cpp   ****     if(body!= nullptr)
  20:src/tcb.cpp   ****         Scheduler::put(this);
  21:src/tcb.cpp   ****    context.ra=(uint64 ) &threadWrapper;
  22:src/tcb.cpp   ****    context.sp= (uint64) &stack[STACK_SIZE];
  23:src/tcb.cpp   **** 
  24:src/tcb.cpp   **** 
  25:src/tcb.cpp   **** }
  26:src/tcb.cpp   **** 
  27:src/tcb.cpp   **** TCB *TCB::createThread(Body body, void *arg,void*stack) {
  28:src/tcb.cpp   ****     uint64* stackT=(uint64*)stack;
  29:src/tcb.cpp   ****     TCB* temp=new TCB(body,arg,stackT);
  30:src/tcb.cpp   ****     if(body== nullptr && arg== nullptr){
  31:src/tcb.cpp   ****         TCB::running=temp;
  32:src/tcb.cpp   ****     }
  33:src/tcb.cpp   **** 
  34:src/tcb.cpp   ****     return temp;
  35:src/tcb.cpp   **** }
  36:src/tcb.cpp   **** TCB::TCB(Body body,void* arg){
  37:src/tcb.cpp   ****     this->body=body;
  38:src/tcb.cpp   ****     this->arg=arg;
  39:src/tcb.cpp   **** }
  40:src/tcb.cpp   **** 
  41:src/tcb.cpp   **** void TCB::start() {
  42:src/tcb.cpp   ****     if(this->isCreated()==true){
  43:src/tcb.cpp   ****         Scheduler::put(this);
  44:src/tcb.cpp   ****     }
  45:src/tcb.cpp   **** }
  46:src/tcb.cpp   **** 
  47:src/tcb.cpp   **** void TCB::dispatch() {
GAS LISTING /tmp/ccB2SuJH.s 			page 2


  48:src/tcb.cpp   ****     TCB *old = running;
  49:src/tcb.cpp   ****     if (!old->isFinished() && !old->isBlocked()) { Scheduler::put(old); }
  50:src/tcb.cpp   ****    running=Scheduler::get();
  51:src/tcb.cpp   ****     while(running->isFinished()==true || running->isBlocked()==true){
  52:src/tcb.cpp   ****         running=Scheduler::get();
  53:src/tcb.cpp   ****     }
  54:src/tcb.cpp   **** 
  55:src/tcb.cpp   ****     TCB::contextSwitch(&old->context, &running->context);
  56:src/tcb.cpp   **** }
  57:src/tcb.cpp   **** 
  58:src/tcb.cpp   **** void TCB::wrapper(void*arg){
  59:src/tcb.cpp   ****     if(arg){
  60:src/tcb.cpp   ****     ((Thread*)arg)->run();
  61:src/tcb.cpp   **** 
  62:src/tcb.cpp   **** 
  63:src/tcb.cpp   **** }
  64:src/tcb.cpp   **** }
  65:src/tcb.cpp   **** bool TCB::checkBody() {
  66:src/tcb.cpp   ****     if(running->getBody())
  67:src/tcb.cpp   ****         return true;
  68:src/tcb.cpp   ****     else return false;
  69:src/tcb.cpp   **** }
  70:src/tcb.cpp   **** bool TCB::checkArg() {
  71:src/tcb.cpp   ****     if(running->getArg())
  72:src/tcb.cpp   ****         return true;
  73:src/tcb.cpp   ****     else return false;
  74:src/tcb.cpp   **** 
  75:src/tcb.cpp   **** }
  76:src/tcb.cpp   **** 
  77:src/tcb.cpp   **** void TCB::threadWrapper() {
  12              		.loc 1 77 27
  13              		.cfi_startproc
  14 0000 130101FE 		addi	sp,sp,-32
  15              		.cfi_def_cfa_offset 32
  16 0004 233C1100 		sd	ra,24(sp)
  17 0008 23388100 		sd	s0,16(sp)
  18 000c 23349100 		sd	s1,8(sp)
  19 0010 23302101 		sd	s2,0(sp)
  20              		.cfi_offset 1, -8
  21              		.cfi_offset 8, -16
  22              		.cfi_offset 9, -24
  23              		.cfi_offset 18, -32
  24 0014 13040102 		addi	s0,sp,32
  25              		.cfi_def_cfa 8, 0
  78:src/tcb.cpp   ****     Riscv::popSppSpie();
  26              		.loc 1 78 5
  27              		.loc 1 78 22 is_stmt 0
  28 0018 97000000 		call	_ZN5Riscv10popSppSpieEv@plt
  28      E7800000 
  29              	.LVL0:
  79:src/tcb.cpp   ****     running->setBody(running->getArg());
  30              		.loc 1 79 5 is_stmt 1
  31              		.loc 1 79 21 is_stmt 0
  32 0020 97070000 		ld	a5,.LANCHOR0
  32      83B70700 
  33              	.LVL1:
  34              	.LBB70:
GAS LISTING /tmp/ccB2SuJH.s 			page 3


  35              	.LBB71:
  36              		.file 2 "src/../h/../h/../h/tcb.hpp"
   1:src/../h/../h/../h/tcb.hpp **** 
   2:src/../h/../h/../h/tcb.hpp **** #ifndef PROJECT_BASE_V1_0_TCB_HPP
   3:src/../h/../h/../h/tcb.hpp **** #define PROJECT_BASE_V1_0_TCB_HPP
   4:src/../h/../h/../h/tcb.hpp **** 
   5:src/../h/../h/../h/tcb.hpp **** #include "../lib/hw.h"
   6:src/../h/../h/../h/tcb.hpp **** #include "../h/MemoryAllocator.hpp"
   7:src/../h/../h/../h/tcb.hpp **** #include "../h/syscall_cpp.hpp"
   8:src/../h/../h/../h/tcb.hpp **** #include "../h/syscall_c.hpp"
   9:src/../h/../h/../h/tcb.hpp **** #include "SCB.hpp"
  10:src/../h/../h/../h/tcb.hpp **** #include "../h/queue.hpp"
  11:src/../h/../h/../h/tcb.hpp **** 
  12:src/../h/../h/../h/tcb.hpp **** class Thread;
  13:src/../h/../h/../h/tcb.hpp **** class SCB;
  14:src/../h/../h/../h/tcb.hpp **** class TCB {
  15:src/../h/../h/../h/tcb.hpp **** 
  16:src/../h/../h/../h/tcb.hpp **** public:
  17:src/../h/../h/../h/tcb.hpp **** 
  18:src/../h/../h/../h/tcb.hpp ****         ~TCB() { if(stack) delete[]stack; }
  19:src/../h/../h/../h/tcb.hpp ****         using Body = void (*)(void*);
  20:src/../h/../h/../h/tcb.hpp ****         bool isFinished() const { return finished; }
  21:src/../h/../h/../h/tcb.hpp ****         void setFinished(bool value) { finished = value; }
  22:src/../h/../h/../h/tcb.hpp ****         void setBlocked(bool value){blocked=value;}
  23:src/../h/../h/../h/tcb.hpp ****         bool isBlocked()const{return blocked;}
  24:src/../h/../h/../h/tcb.hpp ****         bool isCreated()const{return created;}
  25:src/../h/../h/../h/tcb.hpp ****         Body getBody()const{return body;}
  26:src/../h/../h/../h/tcb.hpp ****         void* getArg()const{return arg;}
  37              		.loc 2 26 29 is_stmt 1
  38              	.LBE71:
  39              	.LBE70:
  40              	.LBB72:
  41              	.LBB73:
  27:src/../h/../h/../h/tcb.hpp ****         int getId(){return id;}
  28:src/../h/../h/../h/tcb.hpp ****         void setBody(void* arg){body(arg);}
  42              		.loc 2 28 33
  43 0028 03B70700 		ld	a4,0(a5)
  44              		.loc 2 28 37 is_stmt 0
  45 002c 03B58700 		ld	a0,8(a5)
  46 0030 E7000700 		jalr	a4
  47              	.LVL2:
  48              		.loc 2 28 43
  49 0034 6F000003 		j	.L5
  50              	.LVL3:
  51              	.L8:
  52              	.LBE73:
  53              	.LBE72:
  54              	.LBB74:
  55              	.LBB75:
  56              	.LBB76:
  57              	.LBB77:
  58              	.LBB78:
  59              		.file 3 "src/../h/../h/../h/queue.hpp"
   1:src/../h/../h/../h/queue.hpp **** 
   2:src/../h/../h/../h/queue.hpp **** #ifndef __QUEUE_H__
   3:src/../h/../h/../h/queue.hpp **** #define __QUEUE_H__
   4:src/../h/../h/../h/queue.hpp **** #include "../h/MemoryAllocator.hpp"
GAS LISTING /tmp/ccB2SuJH.s 			page 4


   5:src/../h/../h/../h/queue.hpp **** 
   6:src/../h/../h/../h/queue.hpp **** template<typename T>
   7:src/../h/../h/../h/queue.hpp **** class Queue{
   8:src/../h/../h/../h/queue.hpp **** private:
   9:src/../h/../h/../h/queue.hpp ****     struct Elem{
  10:src/../h/../h/../h/queue.hpp ****         T *tcb;
  11:src/../h/../h/../h/queue.hpp ****         Elem *sled;
  12:src/../h/../h/../h/queue.hpp **** 
  13:src/../h/../h/../h/queue.hpp **** 
  14:src/../h/../h/../h/queue.hpp ****         Elem(T *tcb){
  15:src/../h/../h/../h/queue.hpp ****             this->tcb=tcb;
  16:src/../h/../h/../h/queue.hpp ****             sled= nullptr;
  17:src/../h/../h/../h/queue.hpp ****         }
  18:src/../h/../h/../h/queue.hpp ****         void *operator new(uint64 n) {
  19:src/../h/../h/../h/queue.hpp ****            return MemoryAllocator::memAlloc(n);
  20:src/../h/../h/../h/queue.hpp ****         }
  21:src/../h/../h/../h/queue.hpp **** 
  22:src/../h/../h/../h/queue.hpp ****         void operator delete(void *ptr) {
  23:src/../h/../h/../h/queue.hpp ****             MemoryAllocator::memFree(ptr);
  24:src/../h/../h/../h/queue.hpp ****         }
  25:src/../h/../h/../h/queue.hpp **** 
  26:src/../h/../h/../h/queue.hpp ****         void *operator new[](uint64 n) {
  27:src/../h/../h/../h/queue.hpp ****             return MemoryAllocator::memAlloc(n);
  28:src/../h/../h/../h/queue.hpp ****         }
  29:src/../h/../h/../h/queue.hpp **** 
  30:src/../h/../h/../h/queue.hpp ****         void operator delete[](void *ptr) noexcept {
  31:src/../h/../h/../h/queue.hpp ****            MemoryAllocator::memFree(ptr);
  32:src/../h/../h/../h/queue.hpp ****         }
  33:src/../h/../h/../h/queue.hpp **** 
  34:src/../h/../h/../h/queue.hpp ****     };
  35:src/../h/../h/../h/queue.hpp **** 
  36:src/../h/../h/../h/queue.hpp ****     Elem *prvi, *posl;
  37:src/../h/../h/../h/queue.hpp ****     int vel;
  38:src/../h/../h/../h/queue.hpp **** public:
  39:src/../h/../h/../h/queue.hpp ****     Queue() : prvi(nullptr), posl(nullptr) {}
  40:src/../h/../h/../h/queue.hpp **** 
  41:src/../h/../h/../h/queue.hpp ****     Queue(const Queue<T> &) = delete;
  42:src/../h/../h/../h/queue.hpp **** 
  43:src/../h/../h/../h/queue.hpp ****     Queue<T> &operator=(const Queue<T> &) = delete;
  44:src/../h/../h/../h/queue.hpp **** 
  45:src/../h/../h/../h/queue.hpp ****     int getVel()const{return vel;}
  46:src/../h/../h/../h/queue.hpp **** 
  47:src/../h/../h/../h/queue.hpp ****     void dodajPrvi(T *tcb){
  48:src/../h/../h/../h/queue.hpp ****         Elem *elem = new Elem(tcb);
  49:src/../h/../h/../h/queue.hpp ****         vel++;
  50:src/../h/../h/../h/queue.hpp ****         prvi = elem;
  51:src/../h/../h/../h/queue.hpp ****         if(!posl){ posl=prvi;}
  52:src/../h/../h/../h/queue.hpp ****     }
  53:src/../h/../h/../h/queue.hpp ****     void dodaj(T *tcb){
  54:src/../h/../h/../h/queue.hpp ****         Elem* temp = 0;
  55:src/../h/../h/../h/queue.hpp ****         for (temp = prvi; temp; temp= temp->sled);
  56:src/../h/../h/../h/queue.hpp ****         if (temp != nullptr) return;
  57:src/../h/../h/../h/queue.hpp ****         if (prvi== nullptr) prvi= posl = new Elem(tcb);
  58:src/../h/../h/../h/queue.hpp ****         else posl = posl->sled = new Elem(tcb);
  59:src/../h/../h/../h/queue.hpp ****         vel++;
  60:src/../h/../h/../h/queue.hpp **** 
  61:src/../h/../h/../h/queue.hpp ****     }
GAS LISTING /tmp/ccB2SuJH.s 			page 5


  62:src/../h/../h/../h/queue.hpp ****     T *izbrisiPrvi(){
  63:src/../h/../h/../h/queue.hpp ****         T* ret = 0;
  64:src/../h/../h/../h/queue.hpp ****         if (prvi != nullptr) {
  65:src/../h/../h/../h/queue.hpp **** 
  66:src/../h/../h/../h/queue.hpp ****             Elem* temp = prvi;
  67:src/../h/../h/../h/queue.hpp ****             prvi=prvi->sled;
  68:src/../h/../h/../h/queue.hpp ****             if (prvi== nullptr)
  69:src/../h/../h/../h/queue.hpp ****                 posl= nullptr;
  60              		.loc 3 69 17
  61 0038 23340900 		sd	zero,8(s2)
  62              	.L4:
  70:src/../h/../h/../h/queue.hpp ****             ret = temp->tcb;
  63              		.loc 3 70 13
  64 003c 83340500 		ld	s1,0(a0)
  65              	.LVL4:
  66              	.LBB79:
  67              	.LBB80:
  23:src/../h/../h/../h/queue.hpp ****         }
  68              		.loc 3 23 37
  69 0040 97000000 		call	_ZN15MemoryAllocator7memFreeEPv@plt
  69      E7800000 
  70              	.LVL5:
  71              	.LBE80:
  72              	.LBE79:
  71:src/../h/../h/../h/queue.hpp ****             delete temp;
  72:src/../h/../h/../h/queue.hpp ****             vel--;
  73              		.loc 3 72 13
  74 0048 83270901 		lw	a5,16(s2)
  75 004c 9B87F7FF 		addiw	a5,a5,-1
  76 0050 2328F900 		sw	a5,16(s2)
  77              	.LVL6:
  78              	.L3:
  79              	.LBE78:
  80              	.LBE77:
  81              	.LBE76:
  82              	.LBE75:
  80:src/tcb.cpp   ****  while(running->blockedThreads.getPrvi()){
  81:src/tcb.cpp   ****       TCB* t=running->blockedThreads.izbrisiPrvi();
  82:src/tcb.cpp   ****         t->setBlocked(false);
  83              		.loc 1 82 9 is_stmt 1
  84              	.LBB84:
  85              	.LBB85:
  22:src/../h/../h/../h/tcb.hpp ****         bool isBlocked()const{return blocked;}
  86              		.loc 2 22 37
  22:src/../h/../h/../h/tcb.hpp ****         bool isBlocked()const{return blocked;}
  87              		.loc 2 22 44 is_stmt 0
  88 0054 A3840402 		sb	zero,41(s1)
  89              	.LVL7:
  90              	.LBE85:
  91              	.LBE84:
  83:src/tcb.cpp   ****         Scheduler::put(t);
  92              		.loc 1 83 9 is_stmt 1
  93              		.loc 1 83 23 is_stmt 0
  94 0058 13850400 		mv	a0,s1
  95 005c 97000000 		call	_ZN9Scheduler3putEP3TCB@plt
  95      E7800000 
  96              	.LVL8:
GAS LISTING /tmp/ccB2SuJH.s 			page 6


  97              	.L5:
  98              	.LBE74:
  80:src/tcb.cpp   ****  while(running->blockedThreads.getPrvi()){
  99              		.loc 1 80 2 is_stmt 1
  80:src/tcb.cpp   ****  while(running->blockedThreads.getPrvi()){
 100              		.loc 1 80 40
  80:src/tcb.cpp   ****  while(running->blockedThreads.getPrvi()){
 101              		.loc 1 80 17 is_stmt 0
 102 0064 97070000 		ld	a5,.LANCHOR0
 102      83B70700 
 103              	.LVL9:
 104              	.LBB87:
 105              	.LBB88:
  73:src/../h/../h/../h/queue.hpp **** 
  74:src/../h/../h/../h/queue.hpp ****         }
  75:src/../h/../h/../h/queue.hpp ****         return ret;
  76:src/../h/../h/../h/queue.hpp ****     }
  77:src/../h/../h/../h/queue.hpp ****     T *getPrvi(){
  78:src/../h/../h/../h/queue.hpp ****         if(!prvi){ return nullptr; }
 106              		.loc 3 78 13
 107 006c 03B70703 		ld	a4,48(a5)
 108              		.loc 3 78 9
 109 0070 63080702 		beqz	a4,.L2
  79:src/../h/../h/../h/queue.hpp ****         return prvi->tcb;
 110              		.loc 3 79 22
 111 0074 03370700 		ld	a4,0(a4)
 112              	.LVL10:
 113              	.LBE88:
 114              	.LBE87:
  80:src/tcb.cpp   ****       TCB* t=running->blockedThreads.izbrisiPrvi();
 115              		.loc 1 80 40
 116 0078 63040702 		beqz	a4,.L2
 117              	.LBB89:
  81:src/tcb.cpp   ****         t->setBlocked(false);
 118              		.loc 1 81 7 is_stmt 1
  81:src/tcb.cpp   ****         t->setBlocked(false);
 119              		.loc 1 81 49 is_stmt 0
 120 007c 13890703 		addi	s2,a5,48
 121              	.LVL11:
 122              	.LBB86:
 123              	.LBB83:
 124              	.LBB82:
  64:src/../h/../h/../h/queue.hpp **** 
 125              		.loc 3 64 13
 126 0080 03B50703 		ld	a0,48(a5)
  64:src/../h/../h/../h/queue.hpp **** 
 127              		.loc 3 64 9
 128 0084 630A0500 		beqz	a0,.L6
 129              	.LVL12:
 130              	.LBB81:
  67:src/../h/../h/../h/queue.hpp ****             if (prvi== nullptr)
 131              		.loc 3 67 24
 132 0088 03378500 		ld	a4,8(a0)
  67:src/../h/../h/../h/queue.hpp ****             if (prvi== nullptr)
 133              		.loc 3 67 13
 134 008c 23B8E702 		sd	a4,48(a5)
  68:src/../h/../h/../h/queue.hpp ****                 posl= nullptr;
GAS LISTING /tmp/ccB2SuJH.s 			page 7


 135              		.loc 3 68 13
 136 0090 E31607FA 		bnez	a4,.L4
 137 0094 6FF05FFA 		j	.L8
 138              	.LVL13:
 139              	.L6:
 140              	.LBE81:
 141              	.LBE82:
  63:src/../h/../h/../h/queue.hpp ****         if (prvi != nullptr) {
 142              		.loc 3 63 12
 143 0098 93040500 		mv	s1,a0
 144 009c 6FF09FFB 		j	.L3
 145              	.LVL14:
 146              	.L2:
 147              	.LBE83:
 148              	.LBE86:
 149              	.LBE89:
  84:src/tcb.cpp   ****  }
  85:src/tcb.cpp   **** thread_exit();
 150              		.loc 1 85 1 is_stmt 1
 151              		.loc 1 85 12 is_stmt 0
 152 00a0 97000000 		call	_Z11thread_exitv@plt
 152      E7800000 
 153              	.LVL15:
  86:src/tcb.cpp   **** 
  87:src/tcb.cpp   **** }
 154              		.loc 1 87 1
 155 00a8 83308101 		ld	ra,24(sp)
 156              		.cfi_restore 1
 157 00ac 03340101 		ld	s0,16(sp)
 158              		.cfi_restore 8
 159              		.cfi_def_cfa 2, 32
 160 00b0 83348100 		ld	s1,8(sp)
 161              		.cfi_restore 9
 162 00b4 03390100 		ld	s2,0(sp)
 163              		.cfi_restore 18
 164 00b8 13010102 		addi	sp,sp,32
 165              		.cfi_def_cfa_offset 0
 166 00bc 67800000 		jr	ra
 167              		.cfi_endproc
 168              	.LFE63:
 170              		.align	2
 171              		.globl	_ZN3TCBC2EPFvPvES0_Pm
 173              	_ZN3TCBC2EPFvPvES0_Pm:
 174              	.LFB52:
   9:src/tcb.cpp   **** 
 175              		.loc 1 9 1 is_stmt 1
 176              		.cfi_startproc
 177              	.LVL16:
 178 00c0 130101FE 		addi	sp,sp,-32
 179              		.cfi_def_cfa_offset 32
 180 00c4 233C1100 		sd	ra,24(sp)
 181 00c8 23388100 		sd	s0,16(sp)
 182 00cc 23349100 		sd	s1,8(sp)
 183 00d0 23302101 		sd	s2,0(sp)
 184              		.cfi_offset 1, -8
 185              		.cfi_offset 8, -16
 186              		.cfi_offset 9, -24
GAS LISTING /tmp/ccB2SuJH.s 			page 8


 187              		.cfi_offset 18, -32
 188 00d4 13040102 		addi	s0,sp,32
 189              		.cfi_def_cfa 8, 0
 190 00d8 93040500 		mv	s1,a0
 191 00dc 13890600 		mv	s2,a3
 192              	.LVL17:
 193              	.LBB90:
 194              	.LBB91:
 195              	.LBB92:
  39:src/../h/../h/../h/queue.hpp **** 
 196              		.loc 3 39 42 is_stmt 0
 197 00e0 23380502 		sd	zero,48(a0)
 198 00e4 233C0502 		sd	zero,56(a0)
 199              	.LVL18:
 200              	.LBE92:
 201              	.LBE91:
  11:src/tcb.cpp   ****     this->arg=arg;
 202              		.loc 1 11 5 is_stmt 1
  11:src/tcb.cpp   ****     this->arg=arg;
 203              		.loc 1 11 15 is_stmt 0
 204 00e8 2330B500 		sd	a1,0(a0)
  12:src/tcb.cpp   ****     created=true;
 205              		.loc 1 12 5 is_stmt 1
  12:src/tcb.cpp   ****     created=true;
 206              		.loc 1 12 14 is_stmt 0
 207 00ec 2334C500 		sd	a2,8(a0)
  13:src/tcb.cpp   ****     finished=false;
 208              		.loc 1 13 5 is_stmt 1
  13:src/tcb.cpp   ****     finished=false;
 209              		.loc 1 13 12 is_stmt 0
 210 00f0 93071000 		li	a5,1
 211 00f4 2305F502 		sb	a5,42(a0)
  14:src/tcb.cpp   ****     blocked=false;
 212              		.loc 1 14 5 is_stmt 1
  14:src/tcb.cpp   ****     blocked=false;
 213              		.loc 1 14 13 is_stmt 0
 214 00f8 23040502 		sb	zero,40(a0)
  15:src/tcb.cpp   ****     id=++ID;
 215              		.loc 1 15 5 is_stmt 1
  15:src/tcb.cpp   ****     id=++ID;
 216              		.loc 1 15 12 is_stmt 0
 217 00fc A3040502 		sb	zero,41(a0)
  16:src/tcb.cpp   **** 
 218              		.loc 1 16 5 is_stmt 1
  16:src/tcb.cpp   **** 
 219              		.loc 1 16 8 is_stmt 0
 220 0100 17070000 		lla	a4,.LANCHOR0
 220      13070700 
 221 0108 83278700 		lw	a5,8(a4)
 222 010c 9B871700 		addiw	a5,a5,1
  16:src/tcb.cpp   **** 
 223              		.loc 1 16 7
 224 0110 2324F700 		sw	a5,8(a4)
 225 0114 2326F502 		sw	a5,44(a0)
  18:src/tcb.cpp   ****     if(body!= nullptr)
 226              		.loc 1 18 4 is_stmt 1
  18:src/tcb.cpp   ****     if(body!= nullptr)
GAS LISTING /tmp/ccB2SuJH.s 			page 9


 227              		.loc 1 18 15 is_stmt 0
 228 0118 2338D500 		sd	a3,16(a0)
  19:src/tcb.cpp   ****         Scheduler::put(this);
 229              		.loc 1 19 5 is_stmt 1
 230 011c 63860500 		beqz	a1,.L10
  20:src/tcb.cpp   ****    context.ra=(uint64 ) &threadWrapper;
 231              		.loc 1 20 9
  20:src/tcb.cpp   ****    context.ra=(uint64 ) &threadWrapper;
 232              		.loc 1 20 23 is_stmt 0
 233 0120 97000000 		call	_ZN9Scheduler3putEP3TCB@plt
 233      E7800000 
 234              	.LVL19:
 235              	.L10:
  21:src/tcb.cpp   ****    context.sp= (uint64) &stack[STACK_SIZE];
 236              		.loc 1 21 4 is_stmt 1
  21:src/tcb.cpp   ****    context.sp= (uint64) &stack[STACK_SIZE];
 237              		.loc 1 21 14 is_stmt 0
 238 0128 97070000 		lla	a5,_ZN3TCB13threadWrapperEv
 238      93870700 
 239 0130 23BCF400 		sd	a5,24(s1)
  22:src/tcb.cpp   **** 
 240              		.loc 1 22 4 is_stmt 1
  22:src/tcb.cpp   **** 
 241              		.loc 1 22 25 is_stmt 0
 242 0134 B7860000 		li	a3,32768
 243 0138 3309D900 		add	s2,s2,a3
 244              	.LVL20:
  22:src/tcb.cpp   **** 
 245              		.loc 1 22 14
 246 013c 23B02403 		sd	s2,32(s1)
 247              	.LBE90:
  25:src/tcb.cpp   **** 
 248              		.loc 1 25 1
 249 0140 83308101 		ld	ra,24(sp)
 250              		.cfi_restore 1
 251 0144 03340101 		ld	s0,16(sp)
 252              		.cfi_restore 8
 253              		.cfi_def_cfa 2, 32
 254 0148 83348100 		ld	s1,8(sp)
 255              		.cfi_restore 9
 256              	.LVL21:
 257 014c 03390100 		ld	s2,0(sp)
 258              		.cfi_restore 18
 259              	.LVL22:
 260 0150 13010102 		addi	sp,sp,32
 261              		.cfi_def_cfa_offset 0
 262 0154 67800000 		jr	ra
 263              		.cfi_endproc
 264              	.LFE52:
 266              		.globl	_ZN3TCBC1EPFvPvES0_Pm
 267              		.set	_ZN3TCBC1EPFvPvES0_Pm,_ZN3TCBC2EPFvPvES0_Pm
 268              		.align	2
 269              		.globl	_ZN3TCB12createThreadEPFvPvES0_S0_
 271              	_ZN3TCB12createThreadEPFvPvES0_S0_:
 272              	.LFB54:
  27:src/tcb.cpp   ****     uint64* stackT=(uint64*)stack;
 273              		.loc 1 27 57 is_stmt 1
GAS LISTING /tmp/ccB2SuJH.s 			page 10


 274              		.cfi_startproc
 275              		.cfi_personality 0x9b,DW.ref.__gxx_personality_v0
 276              		.cfi_lsda 0x1b,.LLSDA54
 277              	.LVL23:
 278 0158 130101FD 		addi	sp,sp,-48
 279              		.cfi_def_cfa_offset 48
 280 015c 23341102 		sd	ra,40(sp)
 281 0160 23308102 		sd	s0,32(sp)
 282 0164 233C9100 		sd	s1,24(sp)
 283 0168 23382101 		sd	s2,16(sp)
 284 016c 23343101 		sd	s3,8(sp)
 285 0170 23304101 		sd	s4,0(sp)
 286              		.cfi_offset 1, -8
 287              		.cfi_offset 8, -16
 288              		.cfi_offset 9, -24
 289              		.cfi_offset 18, -32
 290              		.cfi_offset 19, -40
 291              		.cfi_offset 20, -48
 292 0174 13040103 		addi	s0,sp,48
 293              		.cfi_def_cfa 8, 0
 294 0178 93040500 		mv	s1,a0
 295 017c 13890500 		mv	s2,a1
 296 0180 130A0600 		mv	s4,a2
  28:src/tcb.cpp   ****     TCB* temp=new TCB(body,arg,stackT);
 297              		.loc 1 28 5
 298              	.LVL24:
  29:src/tcb.cpp   ****     if(body== nullptr && arg== nullptr){
 299              		.loc 1 29 5
 300              	.LBB93:
 301              	.LBB94:
  29:src/../h/../h/../h/tcb.hpp ****         void start();
  30:src/../h/../h/../h/tcb.hpp ****         static TCB *createThread(Body body, void *arg,void * stack);
  31:src/../h/../h/../h/tcb.hpp ****         static void yield();
  32:src/../h/../h/../h/tcb.hpp ****         static TCB *running;
  33:src/../h/../h/../h/tcb.hpp ****         void join();
  34:src/../h/../h/../h/tcb.hpp **** 
  35:src/../h/../h/../h/tcb.hpp ****     void *operator new(uint64 n) {
  36:src/../h/../h/../h/tcb.hpp ****         return MemoryAllocator::memAlloc(n);
 302              		.loc 2 36 9
 303              		.loc 2 36 41 is_stmt 0
 304 0184 13058004 		li	a0,72
 305              	.LVL25:
 306              	.LEHB0:
 307 0188 97000000 		call	_ZN15MemoryAllocator8memAllocEm@plt
 307      E7800000 
 308              	.LVL26:
 309              	.LEHE0:
 310 0190 93090500 		mv	s3,a0
 311              	.LVL27:
 312              	.LBE94:
 313              	.LBE93:
  29:src/tcb.cpp   ****     if(body== nullptr && arg== nullptr){
 314              		.loc 1 29 38
 315 0194 93060A00 		mv	a3,s4
 316 0198 13060900 		mv	a2,s2
 317 019c 93850400 		mv	a1,s1
 318              	.LEHB1:
GAS LISTING /tmp/ccB2SuJH.s 			page 11


 319 01a0 97000000 		call	_ZN3TCBC1EPFvPvES0_Pm
 319      E7800000 
 320              	.LVL28:
 321              	.LEHE1:
  30:src/tcb.cpp   ****         TCB::running=temp;
 322              		.loc 1 30 5 is_stmt 1 discriminator 2
 323 01a8 63840402 		beqz	s1,.L17
 324              	.L12:
  35:src/tcb.cpp   **** TCB::TCB(Body body,void* arg){
 325              		.loc 1 35 1 is_stmt 0
 326 01ac 13850900 		mv	a0,s3
 327 01b0 83308102 		ld	ra,40(sp)
 328              		.cfi_remember_state
 329              		.cfi_restore 1
 330 01b4 03340102 		ld	s0,32(sp)
 331              		.cfi_restore 8
 332              		.cfi_def_cfa 2, 48
 333 01b8 83348101 		ld	s1,24(sp)
 334              		.cfi_restore 9
 335              	.LVL29:
 336 01bc 03390101 		ld	s2,16(sp)
 337              		.cfi_restore 18
 338              	.LVL30:
 339 01c0 83398100 		ld	s3,8(sp)
 340              		.cfi_restore 19
 341              	.LVL31:
 342 01c4 033A0100 		ld	s4,0(sp)
 343              		.cfi_restore 20
 344              	.LVL32:
 345 01c8 13010103 		addi	sp,sp,48
 346              		.cfi_def_cfa_offset 0
 347 01cc 67800000 		jr	ra
 348              	.LVL33:
 349              	.L17:
 350              		.cfi_restore_state
  30:src/tcb.cpp   ****         TCB::running=temp;
 351              		.loc 1 30 23 discriminator 1
 352 01d0 E31E09FC 		bnez	s2,.L12
  31:src/tcb.cpp   ****     }
 353              		.loc 1 31 9 is_stmt 1
  31:src/tcb.cpp   ****     }
 354              		.loc 1 31 21 is_stmt 0
 355 01d4 97070000 		sd	s3,.LANCHOR0,a5
 355      23B03701 
  34:src/tcb.cpp   **** }
 356              		.loc 1 34 5 is_stmt 1
  34:src/tcb.cpp   **** }
 357              		.loc 1 34 12 is_stmt 0
 358 01dc 6FF01FFD 		j	.L12
 359              	.LVL34:
 360              	.L15:
 361 01e0 93040500 		mv	s1,a0
 362              	.LVL35:
 363              	.LBB95:
 364              	.LBB96:
  37:src/../h/../h/../h/tcb.hpp ****     }
  38:src/../h/../h/../h/tcb.hpp **** 
GAS LISTING /tmp/ccB2SuJH.s 			page 12


  39:src/../h/../h/../h/tcb.hpp **** 
  40:src/../h/../h/../h/tcb.hpp ****     void operator delete(void *ptr) {
  41:src/../h/../h/../h/tcb.hpp ****         MemoryAllocator::memFree(ptr);
 365              		.loc 2 41 9 is_stmt 1
 366              		.loc 2 41 33 is_stmt 0
 367 01e4 13850900 		mv	a0,s3
 368 01e8 97000000 		call	_ZN15MemoryAllocator7memFreeEPv@plt
 368      E7800000 
 369              	.LVL36:
 370 01f0 13850400 		mv	a0,s1
 371              	.LEHB2:
 372 01f4 97000000 		call	_Unwind_Resume@plt
 372      E7800000 
 373              	.LVL37:
 374              	.LEHE2:
 375              	.LBE96:
 376              	.LBE95:
 377              		.cfi_endproc
 378              	.LFE54:
 379              		.globl	__gxx_personality_v0
 380              		.section	.gcc_except_table,"a",@progbits
 381              	.LLSDA54:
 382 0000 FF       		.byte	0xff
 383 0001 FF       		.byte	0xff
 384 0002 03       		.byte	0x3
 385 0003 27       		.byte	0x27
 386 0004 00000000 		.4byte	.LEHB0-.LFB54
 387 0008 00000000 		.4byte	.LEHE0-.LEHB0
 388 000c 00000000 		.4byte	0
 389 0010 00       		.byte	0
 390 0011 00000000 		.4byte	.LEHB1-.LFB54
 391 0015 00000000 		.4byte	.LEHE1-.LEHB1
 392 0019 00000000 		.4byte	.L15-.LFB54
 393 001d 00       		.byte	0
 394 001e 00000000 		.4byte	.LEHB2-.LFB54
 395 0022 00000000 		.4byte	.LEHE2-.LEHB2
 396 0026 00000000 		.4byte	0
 397 002a 00       		.byte	0
 398              		.text
 400              		.align	2
 401              		.globl	_ZN3TCBC2EPFvPvES0_
 403              	_ZN3TCBC2EPFvPvES0_:
 404              	.LFB56:
  36:src/tcb.cpp   ****     this->body=body;
 405              		.loc 1 36 1 is_stmt 1
 406              		.cfi_startproc
 407              	.LVL38:
 408 01fc 130101FF 		addi	sp,sp,-16
 409              		.cfi_def_cfa_offset 16
 410 0200 23348100 		sd	s0,8(sp)
 411              		.cfi_offset 8, -8
 412 0204 13040101 		addi	s0,sp,16
 413              		.cfi_def_cfa 8, 0
 414              	.LVL39:
 415              	.LBB97:
 416              	.LBB98:
 417              	.LBB99:
GAS LISTING /tmp/ccB2SuJH.s 			page 13


  39:src/../h/../h/../h/queue.hpp **** 
 418              		.loc 3 39 42 is_stmt 0
 419 0208 23380502 		sd	zero,48(a0)
 420 020c 233C0502 		sd	zero,56(a0)
 421              	.LVL40:
 422              	.LBE99:
 423              	.LBE98:
  37:src/tcb.cpp   ****     this->arg=arg;
 424              		.loc 1 37 5 is_stmt 1
  37:src/tcb.cpp   ****     this->arg=arg;
 425              		.loc 1 37 15 is_stmt 0
 426 0210 2330B500 		sd	a1,0(a0)
  38:src/tcb.cpp   **** }
 427              		.loc 1 38 5 is_stmt 1
  38:src/tcb.cpp   **** }
 428              		.loc 1 38 14 is_stmt 0
 429 0214 2334C500 		sd	a2,8(a0)
 430              	.LBE97:
  39:src/tcb.cpp   **** 
 431              		.loc 1 39 1
 432 0218 03348100 		ld	s0,8(sp)
 433              		.cfi_restore 8
 434              		.cfi_def_cfa 2, 16
 435 021c 13010101 		addi	sp,sp,16
 436              		.cfi_def_cfa_offset 0
 437 0220 67800000 		jr	ra
 438              		.cfi_endproc
 439              	.LFE56:
 441              		.globl	_ZN3TCBC1EPFvPvES0_
 442              		.set	_ZN3TCBC1EPFvPvES0_,_ZN3TCBC2EPFvPvES0_
 443              		.align	2
 444              		.globl	_ZN3TCB5startEv
 446              	_ZN3TCB5startEv:
 447              	.LFB58:
  41:src/tcb.cpp   ****     if(this->isCreated()==true){
 448              		.loc 1 41 19 is_stmt 1
 449              		.cfi_startproc
 450              	.LVL41:
  42:src/tcb.cpp   ****         Scheduler::put(this);
 451              		.loc 1 42 5
 452              	.LBB100:
 453              	.LBB101:
  24:src/../h/../h/../h/tcb.hpp ****         Body getBody()const{return body;}
 454              		.loc 2 24 31
  24:src/../h/../h/../h/tcb.hpp ****         Body getBody()const{return body;}
 455              		.loc 2 24 38 is_stmt 0
 456 0224 8347A502 		lbu	a5,42(a0)
 457              	.LVL42:
 458              	.LBE101:
 459              	.LBE100:
  42:src/tcb.cpp   ****         Scheduler::put(this);
 460              		.loc 1 42 5
 461 0228 63940700 		bnez	a5,.L26
 462 022c 67800000 		ret
 463              	.L26:
  41:src/tcb.cpp   ****     if(this->isCreated()==true){
 464              		.loc 1 41 19
GAS LISTING /tmp/ccB2SuJH.s 			page 14


 465 0230 130101FF 		addi	sp,sp,-16
 466              		.cfi_def_cfa_offset 16
 467 0234 23341100 		sd	ra,8(sp)
 468 0238 23308100 		sd	s0,0(sp)
 469              		.cfi_offset 1, -8
 470              		.cfi_offset 8, -16
 471 023c 13040101 		addi	s0,sp,16
 472              		.cfi_def_cfa 8, 0
  43:src/tcb.cpp   ****     }
 473              		.loc 1 43 9 is_stmt 1
  43:src/tcb.cpp   ****     }
 474              		.loc 1 43 23 is_stmt 0
 475 0240 97000000 		call	_ZN9Scheduler3putEP3TCB@plt
 475      E7800000 
 476              	.LVL43:
  45:src/tcb.cpp   **** 
 477              		.loc 1 45 1
 478 0248 83308100 		ld	ra,8(sp)
 479              		.cfi_restore 1
 480 024c 03340100 		ld	s0,0(sp)
 481              		.cfi_restore 8
 482              		.cfi_def_cfa 2, 16
 483 0250 13010101 		addi	sp,sp,16
 484              		.cfi_def_cfa_offset 0
 485 0254 67800000 		jr	ra
 486              		.cfi_endproc
 487              	.LFE58:
 489              		.align	2
 490              		.globl	_ZN3TCB8dispatchEv
 492              	_ZN3TCB8dispatchEv:
 493              	.LFB59:
  47:src/tcb.cpp   ****     TCB *old = running;
 494              		.loc 1 47 22 is_stmt 1
 495              		.cfi_startproc
 496 0258 130101FE 		addi	sp,sp,-32
 497              		.cfi_def_cfa_offset 32
 498 025c 233C1100 		sd	ra,24(sp)
 499 0260 23388100 		sd	s0,16(sp)
 500 0264 23349100 		sd	s1,8(sp)
 501              		.cfi_offset 1, -8
 502              		.cfi_offset 8, -16
 503              		.cfi_offset 9, -24
 504 0268 13040102 		addi	s0,sp,32
 505              		.cfi_def_cfa 8, 0
  48:src/tcb.cpp   ****     if (!old->isFinished() && !old->isBlocked()) { Scheduler::put(old); }
 506              		.loc 1 48 5
  48:src/tcb.cpp   ****     if (!old->isFinished() && !old->isBlocked()) { Scheduler::put(old); }
 507              		.loc 1 48 10 is_stmt 0
 508 026c 97040000 		ld	s1,.LANCHOR0
 508      83B40400 
 509              	.LVL44:
  49:src/tcb.cpp   ****    running=Scheduler::get();
 510              		.loc 1 49 5 is_stmt 1
 511              	.LBB102:
 512              	.LBB103:
  20:src/../h/../h/../h/tcb.hpp ****         void setFinished(bool value) { finished = value; }
 513              		.loc 2 20 35
GAS LISTING /tmp/ccB2SuJH.s 			page 15


  20:src/../h/../h/../h/tcb.hpp ****         void setFinished(bool value) { finished = value; }
 514              		.loc 2 20 42 is_stmt 0
 515 0274 83C78402 		lbu	a5,40(s1)
 516              	.LVL45:
 517              	.LBE103:
 518              	.LBE102:
  49:src/tcb.cpp   ****    running=Scheduler::get();
 519              		.loc 1 49 28
 520 0278 63960700 		bnez	a5,.L28
 521              	.LVL46:
 522              	.LBB104:
 523              	.LBB105:
  23:src/../h/../h/../h/tcb.hpp ****         bool isCreated()const{return created;}
 524              		.loc 2 23 31 is_stmt 1
  23:src/../h/../h/../h/tcb.hpp ****         bool isCreated()const{return created;}
 525              		.loc 2 23 38 is_stmt 0
 526 027c 83C79402 		lbu	a5,41(s1)
 527              	.LVL47:
 528              	.LBE105:
 529              	.LBE104:
  49:src/tcb.cpp   ****    running=Scheduler::get();
 530              		.loc 1 49 28
 531 0280 638C0700 		beqz	a5,.L33
 532              	.L28:
  50:src/tcb.cpp   ****     while(running->isFinished()==true || running->isBlocked()==true){
 533              		.loc 1 50 4 is_stmt 1
  50:src/tcb.cpp   ****     while(running->isFinished()==true || running->isBlocked()==true){
 534              		.loc 1 50 26 is_stmt 0
 535 0284 97000000 		call	_ZN9Scheduler3getEv@plt
 535      E7800000 
 536              	.LVL48:
  50:src/tcb.cpp   ****     while(running->isFinished()==true || running->isBlocked()==true){
 537              		.loc 1 50 11
 538 028c 97070000 		sd	a0,.LANCHOR0,a5
 538      23B0A700 
 539 0294 6F004002 		j	.L30
 540              	.L33:
  49:src/tcb.cpp   ****    running=Scheduler::get();
 541              		.loc 1 49 52 is_stmt 1
  49:src/tcb.cpp   ****    running=Scheduler::get();
 542              		.loc 1 49 66 is_stmt 0
 543 0298 13850400 		mv	a0,s1
 544 029c 97000000 		call	_ZN9Scheduler3putEP3TCB@plt
 544      E7800000 
 545              	.LVL49:
 546 02a4 6FF01FFE 		j	.L28
 547              	.L29:
  52:src/tcb.cpp   ****     }
 548              		.loc 1 52 9 is_stmt 1 discriminator 3
  52:src/tcb.cpp   ****     }
 549              		.loc 1 52 31 is_stmt 0 discriminator 3
 550 02a8 97000000 		call	_ZN9Scheduler3getEv@plt
 550      E7800000 
 551              	.LVL50:
  52:src/tcb.cpp   ****     }
 552              		.loc 1 52 16 discriminator 3
 553 02b0 97070000 		sd	a0,.LANCHOR0,a5
GAS LISTING /tmp/ccB2SuJH.s 			page 16


 553      23B0A700 
 554              	.L30:
  51:src/tcb.cpp   ****         running=Scheduler::get();
 555              		.loc 1 51 5 is_stmt 1
  51:src/tcb.cpp   ****         running=Scheduler::get();
 556              		.loc 1 51 39
  51:src/tcb.cpp   ****         running=Scheduler::get();
 557              		.loc 1 51 30 is_stmt 0
 558 02b8 97050000 		ld	a1,.LANCHOR0
 558      83B50500 
 559              	.LVL51:
 560              	.LBB106:
 561              	.LBB107:
  20:src/../h/../h/../h/tcb.hpp ****         void setFinished(bool value) { finished = value; }
 562              		.loc 2 20 35 is_stmt 1
  20:src/../h/../h/../h/tcb.hpp ****         void setFinished(bool value) { finished = value; }
 563              		.loc 2 20 42 is_stmt 0
 564 02c0 83C78502 		lbu	a5,40(a1)
 565              	.LVL52:
 566              	.LBE107:
 567              	.LBE106:
  51:src/tcb.cpp   ****         running=Scheduler::get();
 568              		.loc 1 51 39
 569 02c4 E39207FE 		bnez	a5,.L29
 570              	.LVL53:
 571              	.LBB108:
 572              	.LBB109:
  23:src/../h/../h/../h/tcb.hpp ****         bool isCreated()const{return created;}
 573              		.loc 2 23 31 is_stmt 1 discriminator 2
  23:src/../h/../h/../h/tcb.hpp ****         bool isCreated()const{return created;}
 574              		.loc 2 23 38 is_stmt 0 discriminator 2
 575 02c8 83C79502 		lbu	a5,41(a1)
 576              	.LVL54:
 577              	.LBE109:
 578              	.LBE108:
  51:src/tcb.cpp   ****         running=Scheduler::get();
 579              		.loc 1 51 39 discriminator 2
 580 02cc E39E07FC 		bnez	a5,.L29
  55:src/tcb.cpp   **** }
 581              		.loc 1 55 5 is_stmt 1
  55:src/tcb.cpp   **** }
 582              		.loc 1 55 23 is_stmt 0
 583 02d0 93858501 		addi	a1,a1,24
 584 02d4 13858401 		addi	a0,s1,24
 585 02d8 97000000 		call	_ZN3TCB13contextSwitchEPNS_7ContextES1_@plt
 585      E7800000 
 586              	.LVL55:
  56:src/tcb.cpp   **** 
 587              		.loc 1 56 1
 588 02e0 83308101 		ld	ra,24(sp)
 589              		.cfi_restore 1
 590 02e4 03340101 		ld	s0,16(sp)
 591              		.cfi_restore 8
 592              		.cfi_def_cfa 2, 32
 593 02e8 83348100 		ld	s1,8(sp)
 594              		.cfi_restore 9
 595              	.LVL56:
GAS LISTING /tmp/ccB2SuJH.s 			page 17


 596 02ec 13010102 		addi	sp,sp,32
 597              		.cfi_def_cfa_offset 0
 598 02f0 67800000 		jr	ra
 599              		.cfi_endproc
 600              	.LFE59:
 602              		.align	2
 603              		.globl	_ZN3TCB7wrapperEPv
 605              	_ZN3TCB7wrapperEPv:
 606              	.LFB60:
  58:src/tcb.cpp   ****     if(arg){
 607              		.loc 1 58 28 is_stmt 1
 608              		.cfi_startproc
 609              	.LVL57:
  59:src/tcb.cpp   ****     ((Thread*)arg)->run();
 610              		.loc 1 59 5
 611 02f4 63080502 		beqz	a0,.L37
  58:src/tcb.cpp   ****     if(arg){
 612              		.loc 1 58 28 is_stmt 0
 613 02f8 130101FF 		addi	sp,sp,-16
 614              		.cfi_def_cfa_offset 16
 615 02fc 23341100 		sd	ra,8(sp)
 616 0300 23308100 		sd	s0,0(sp)
 617              		.cfi_offset 1, -8
 618              		.cfi_offset 8, -16
 619 0304 13040101 		addi	s0,sp,16
 620              		.cfi_def_cfa 8, 0
  60:src/tcb.cpp   **** 
 621              		.loc 1 60 5 is_stmt 1
  60:src/tcb.cpp   **** 
 622              		.loc 1 60 25 is_stmt 0
 623 0308 83370500 		ld	a5,0(a0)
 624 030c 83B70701 		ld	a5,16(a5)
  60:src/tcb.cpp   **** 
 625              		.loc 1 60 24
 626 0310 E7800700 		jalr	a5
 627              	.LVL58:
  64:src/tcb.cpp   **** bool TCB::checkBody() {
 628              		.loc 1 64 1
 629 0314 83308100 		ld	ra,8(sp)
 630              		.cfi_restore 1
 631 0318 03340100 		ld	s0,0(sp)
 632              		.cfi_restore 8
 633              		.cfi_def_cfa 2, 16
 634 031c 13010101 		addi	sp,sp,16
 635              		.cfi_def_cfa_offset 0
 636 0320 67800000 		jr	ra
 637              	.LVL59:
 638              	.L37:
 639 0324 67800000 		ret
 640              		.cfi_endproc
 641              	.LFE60:
 643              		.align	2
 644              		.globl	_ZN3TCB9checkBodyEv
 646              	_ZN3TCB9checkBodyEv:
 647              	.LFB61:
  65:src/tcb.cpp   ****     if(running->getBody())
 648              		.loc 1 65 23 is_stmt 1
GAS LISTING /tmp/ccB2SuJH.s 			page 18


 649              		.cfi_startproc
 650 0328 130101FF 		addi	sp,sp,-16
 651              		.cfi_def_cfa_offset 16
 652 032c 23348100 		sd	s0,8(sp)
 653              		.cfi_offset 8, -8
 654 0330 13040101 		addi	s0,sp,16
 655              		.cfi_def_cfa 8, 0
  66:src/tcb.cpp   ****         return true;
 656              		.loc 1 66 5
  66:src/tcb.cpp   ****         return true;
 657              		.loc 1 66 24 is_stmt 0
 658 0334 97070000 		ld	a5,.LANCHOR0
 658      83B70700 
 659              	.LVL60:
 660              	.LBB110:
 661              	.LBB111:
  25:src/../h/../h/../h/tcb.hpp ****         void* getArg()const{return arg;}
 662              		.loc 2 25 29 is_stmt 1
  25:src/../h/../h/../h/tcb.hpp ****         void* getArg()const{return arg;}
 663              		.loc 2 25 36 is_stmt 0
 664 033c 83B70700 		ld	a5,0(a5)
 665              	.LVL61:
 666              	.LBE111:
 667              	.LBE110:
  66:src/tcb.cpp   ****         return true;
 668              		.loc 1 66 5
 669 0340 638A0700 		beqz	a5,.L42
  67:src/tcb.cpp   ****     else return false;
 670              		.loc 1 67 16
 671 0344 13051000 		li	a0,1
 672              	.L41:
  69:src/tcb.cpp   **** bool TCB::checkArg() {
 673              		.loc 1 69 1
 674 0348 03348100 		ld	s0,8(sp)
 675              		.cfi_remember_state
 676              		.cfi_restore 8
 677              		.cfi_def_cfa 2, 16
 678 034c 13010101 		addi	sp,sp,16
 679              		.cfi_def_cfa_offset 0
 680 0350 67800000 		jr	ra
 681              	.L42:
 682              		.cfi_restore_state
  68:src/tcb.cpp   **** }
 683              		.loc 1 68 17
 684 0354 13050000 		li	a0,0
 685 0358 6FF01FFF 		j	.L41
 686              		.cfi_endproc
 687              	.LFE61:
 689              		.align	2
 690              		.globl	_ZN3TCB8checkArgEv
 692              	_ZN3TCB8checkArgEv:
 693              	.LFB62:
  70:src/tcb.cpp   ****     if(running->getArg())
 694              		.loc 1 70 22 is_stmt 1
 695              		.cfi_startproc
 696 035c 130101FF 		addi	sp,sp,-16
 697              		.cfi_def_cfa_offset 16
GAS LISTING /tmp/ccB2SuJH.s 			page 19


 698 0360 23348100 		sd	s0,8(sp)
 699              		.cfi_offset 8, -8
 700 0364 13040101 		addi	s0,sp,16
 701              		.cfi_def_cfa 8, 0
  71:src/tcb.cpp   ****         return true;
 702              		.loc 1 71 5
  71:src/tcb.cpp   ****         return true;
 703              		.loc 1 71 23 is_stmt 0
 704 0368 97070000 		ld	a5,.LANCHOR0
 704      83B70700 
 705              	.LVL62:
 706              	.LBB112:
 707              	.LBB113:
  26:src/../h/../h/../h/tcb.hpp ****         int getId(){return id;}
 708              		.loc 2 26 29 is_stmt 1
  26:src/../h/../h/../h/tcb.hpp ****         int getId(){return id;}
 709              		.loc 2 26 36 is_stmt 0
 710 0370 83B78700 		ld	a5,8(a5)
 711              	.LVL63:
 712              	.LBE113:
 713              	.LBE112:
  71:src/tcb.cpp   ****         return true;
 714              		.loc 1 71 5
 715 0374 638A0700 		beqz	a5,.L46
  72:src/tcb.cpp   ****     else return false;
 716              		.loc 1 72 16
 717 0378 13051000 		li	a0,1
 718              	.L45:
  75:src/tcb.cpp   **** 
 719              		.loc 1 75 1
 720 037c 03348100 		ld	s0,8(sp)
 721              		.cfi_remember_state
 722              		.cfi_restore 8
 723              		.cfi_def_cfa 2, 16
 724 0380 13010101 		addi	sp,sp,16
 725              		.cfi_def_cfa_offset 0
 726 0384 67800000 		jr	ra
 727              	.L46:
 728              		.cfi_restore_state
  73:src/tcb.cpp   **** 
 729              		.loc 1 73 17
 730 0388 13050000 		li	a0,0
 731 038c 6FF01FFF 		j	.L45
 732              		.cfi_endproc
 733              	.LFE62:
 735              		.align	2
 736              		.globl	_ZN3TCB4joinEv
 738              	_ZN3TCB4joinEv:
 739              	.LFB64:
  88:src/tcb.cpp   **** void TCB::join() {
 740              		.loc 1 88 18 is_stmt 1
 741              		.cfi_startproc
 742              	.LVL64:
 743 0390 130101FD 		addi	sp,sp,-48
 744              		.cfi_def_cfa_offset 48
 745 0394 23341102 		sd	ra,40(sp)
 746 0398 23308102 		sd	s0,32(sp)
GAS LISTING /tmp/ccB2SuJH.s 			page 20


 747 039c 233C9100 		sd	s1,24(sp)
 748 03a0 23382101 		sd	s2,16(sp)
 749 03a4 23343101 		sd	s3,8(sp)
 750              		.cfi_offset 1, -8
 751              		.cfi_offset 8, -16
 752              		.cfi_offset 9, -24
 753              		.cfi_offset 18, -32
 754              		.cfi_offset 19, -40
 755 03a8 13040103 		addi	s0,sp,48
 756              		.cfi_def_cfa 8, 0
  89:src/tcb.cpp   ****     if(this==TCB::running|| this->isFinished()==true) {
 757              		.loc 1 89 5
 758              		.loc 1 89 12 is_stmt 0
 759 03ac 17090000 		ld	s2,.LANCHOR0
 759      03390900 
 760              		.loc 1 89 26
 761 03b4 6308A900 		beq	s2,a0,.L48
 762 03b8 93040500 		mv	s1,a0
 763              	.LVL65:
 764              	.LBB130:
 765              	.LBB131:
  20:src/../h/../h/../h/tcb.hpp ****         void setFinished(bool value) { finished = value; }
 766              		.loc 2 20 35 is_stmt 1
  20:src/../h/../h/../h/tcb.hpp ****         void setFinished(bool value) { finished = value; }
 767              		.loc 2 20 42 is_stmt 0
 768 03bc 83478502 		lbu	a5,40(a0)
 769              	.LVL66:
 770              	.LBE131:
 771              	.LBE130:
 772              		.loc 1 89 26
 773 03c0 63800702 		beqz	a5,.L55
 774              	.LVL67:
 775              	.L48:
  90:src/tcb.cpp   ****         return;
  91:src/tcb.cpp   ****     }
  92:src/tcb.cpp   **** 
  93:src/tcb.cpp   ****     TCB::running->setBlocked(true);
  94:src/tcb.cpp   ****     blockedThreads.dodaj(TCB::running);
  95:src/tcb.cpp   **** 
  96:src/tcb.cpp   ****     TCB::dispatch();
  97:src/tcb.cpp   **** }...
 776              		.loc 1 97 1
 777 03c4 83308102 		ld	ra,40(sp)
 778              		.cfi_remember_state
 779              		.cfi_restore 1
 780 03c8 03340102 		ld	s0,32(sp)
 781              		.cfi_restore 8
 782              		.cfi_def_cfa 2, 48
 783 03cc 83348101 		ld	s1,24(sp)
 784              		.cfi_restore 9
 785 03d0 03390101 		ld	s2,16(sp)
 786              		.cfi_restore 18
 787 03d4 83398100 		ld	s3,8(sp)
 788              		.cfi_restore 19
 789 03d8 13010103 		addi	sp,sp,48
 790              		.cfi_def_cfa_offset 0
 791 03dc 67800000 		jr	ra
GAS LISTING /tmp/ccB2SuJH.s 			page 21


 792              	.LVL68:
 793              	.L55:
 794              		.cfi_restore_state
  93:src/tcb.cpp   ****     TCB::running->setBlocked(true);
 795              		.loc 1 93 5 is_stmt 1
 796              	.LBB132:
 797              	.LBB133:
  22:src/../h/../h/../h/tcb.hpp ****         bool isBlocked()const{return blocked;}
 798              		.loc 2 22 37
  22:src/../h/../h/../h/tcb.hpp ****         bool isBlocked()const{return blocked;}
 799              		.loc 2 22 44 is_stmt 0
 800 03e0 93071000 		li	a5,1
 801 03e4 A304F902 		sb	a5,41(s2)
 802              	.LVL69:
 803              	.LBE133:
 804              	.LBE132:
  94:src/tcb.cpp   ****     blockedThreads.dodaj(TCB::running);
 805              		.loc 1 94 5 is_stmt 1
  94:src/tcb.cpp   ****     blockedThreads.dodaj(TCB::running);
 806              		.loc 1 94 25 is_stmt 0
 807 03e8 93090503 		addi	s3,a0,48
 808              	.LVL70:
 809              	.LBB134:
 810              	.LBB135:
  55:src/../h/../h/../h/queue.hpp ****         if (temp != nullptr) return;
 811              		.loc 3 55 19
 812 03ec 03370503 		ld	a4,48(a0)
 813              	.LVL71:
 814 03f0 93070700 		mv	a5,a4
 815 03f4 6F008000 		j	.L51
 816              	.LVL72:
 817              	.L56:
  55:src/../h/../h/../h/queue.hpp ****         if (temp != nullptr) return;
 818              		.loc 3 55 9 is_stmt 1
 819 03f8 83B78700 		ld	a5,8(a5)
 820              	.LVL73:
 821              	.L51:
  55:src/../h/../h/../h/queue.hpp ****         if (temp != nullptr) return;
 822              		.loc 3 55 9
 823 03fc E39E07FE 		bnez	a5,.L56
  57:src/../h/../h/../h/queue.hpp ****         else posl = posl->sled = new Elem(tcb);
 824              		.loc 3 57 9 is_stmt 0
 825 0400 630E0702 		beqz	a4,.L57
 826              	.LVL74:
 827              	.LBB136:
 828              	.LBB137:
  19:src/../h/../h/../h/queue.hpp ****         }
 829              		.loc 3 19 44
 830 0404 13050001 		li	a0,16
 831 0408 97000000 		call	_ZN15MemoryAllocator8memAllocEm@plt
 831      E7800000 
 832              	.LVL75:
 833              	.LBE137:
 834              	.LBE136:
 835              	.LBB138:
 836              	.LBB139:
  15:src/../h/../h/../h/queue.hpp ****             sled= nullptr;
GAS LISTING /tmp/ccB2SuJH.s 			page 22


 837              		.loc 3 15 13
 838 0410 23302501 		sd	s2,0(a0)
  16:src/../h/../h/../h/queue.hpp ****         }
 839              		.loc 3 16 13
 840 0414 23340500 		sd	zero,8(a0)
 841              	.LVL76:
 842              	.LBE139:
 843              	.LBE138:
  58:src/../h/../h/../h/queue.hpp ****         vel++;
 844              		.loc 3 58 21
 845 0418 83B78900 		ld	a5,8(s3)
  58:src/../h/../h/../h/queue.hpp ****         vel++;
 846              		.loc 3 58 14
 847 041c 23B4A700 		sd	a0,8(a5)
 848 0420 23B4A900 		sd	a0,8(s3)
 849              	.L53:
  59:src/../h/../h/../h/queue.hpp **** 
 850              		.loc 3 59 9
 851 0424 83A70901 		lw	a5,16(s3)
 852 0428 9B871700 		addiw	a5,a5,1
 853 042c 23A8F900 		sw	a5,16(s3)
 854              	.LVL77:
 855              	.LBE135:
 856              	.LBE134:
  96:src/tcb.cpp   ****     TCB::dispatch();
 857              		.loc 1 96 5 is_stmt 1
  96:src/tcb.cpp   ****     TCB::dispatch();
 858              		.loc 1 96 18 is_stmt 0
 859 0430 97000000 		call	_ZN3TCB8dispatchEv
 859      E7800000 
 860              	.LVL78:
 861 0438 6FF0DFF8 		j	.L48
 862              	.LVL79:
 863              	.L57:
 864              	.LBB145:
 865              	.LBB144:
 866              	.LBB140:
 867              	.LBB141:
  19:src/../h/../h/../h/queue.hpp ****         }
 868              		.loc 3 19 44
 869 043c 13050001 		li	a0,16
 870 0440 97000000 		call	_ZN15MemoryAllocator8memAllocEm@plt
 870      E7800000 
 871              	.LVL80:
 872              	.LBE141:
 873              	.LBE140:
 874              	.LBB142:
 875              	.LBB143:
  15:src/../h/../h/../h/queue.hpp ****             sled= nullptr;
 876              		.loc 3 15 13
 877 0448 23302501 		sd	s2,0(a0)
  16:src/../h/../h/../h/queue.hpp ****         }
 878              		.loc 3 16 13
 879 044c 23340500 		sd	zero,8(a0)
 880              	.LVL81:
 881              	.LBE143:
 882              	.LBE142:
GAS LISTING /tmp/ccB2SuJH.s 			page 23


  57:src/../h/../h/../h/queue.hpp ****         else posl = posl->sled = new Elem(tcb);
 883              		.loc 3 57 29
 884 0450 23B4A900 		sd	a0,8(s3)
 885 0454 23B8A402 		sd	a0,48(s1)
 886 0458 6FF0DFFC 		j	.L53
 887              	.LBE144:
 888              	.LBE145:
 889              		.cfi_endproc
 890              	.LFE64:
 892              		.globl	_ZN3TCB7runningE
 893              		.bss
 894              		.align	3
 895              		.set	.LANCHOR0,. + 0
 898              	_ZN3TCB7runningE:
 899 0000 00000000 		.zero	8
 899      00000000 
 902              	_ZL2ID:
 903 0008 00000000 		.zero	4
 904              		.text
 905              	.Letext0:
 906              		.file 4 "src/../h/../h/../h/../lib/hw.h"
 907              		.file 5 "src/../h/../h/../h/../h/MemoryAllocator.hpp"
 908              		.file 6 "src/../h/scheduler.hpp"
 909              		.file 7 "src/../h/riscv.hpp"
 910              		.file 8 "src/../h/../h/syscall_c.hpp"
 5364              		.align	3
 5367              	DW.ref.__gxx_personality_v0:
 5368 0000 00000000 		.dword	__gxx_personality_v0
 5368      00000000 
 5369              		.ident	"GCC: (Ubuntu 9.4.0-1ubuntu1~20.04) 9.4.0"
 5370              		.section	.note.GNU-stack,"",@progbits
GAS LISTING /tmp/ccB2SuJH.s 			page 24


DEFINED SYMBOLS
                            *ABS*:0000000000000000 tcb.cpp
     /tmp/ccB2SuJH.s:9      .text:0000000000000000 _ZN3TCB13threadWrapperEv
     /tmp/ccB2SuJH.s:13     .text:0000000000000000 .L0 
     /tmp/ccB2SuJH.s:14     .text:0000000000000000 .L0 
     /tmp/ccB2SuJH.s:15     .text:0000000000000004 .L0 
     /tmp/ccB2SuJH.s:20     .text:0000000000000014 .L0 
     /tmp/ccB2SuJH.s:21     .text:0000000000000014 .L0 
     /tmp/ccB2SuJH.s:22     .text:0000000000000014 .L0 
     /tmp/ccB2SuJH.s:23     .text:0000000000000014 .L0 
     /tmp/ccB2SuJH.s:25     .text:0000000000000018 .L0 
     /tmp/ccB2SuJH.s:27     .text:0000000000000018 .L0 
     /tmp/ccB2SuJH.s:28     .text:0000000000000018 .L0 
     /tmp/ccB2SuJH.s:31     .text:0000000000000020 .L0 
     /tmp/ccB2SuJH.s:32     .text:0000000000000020 .L0 
     /tmp/ccB2SuJH.s:42     .text:0000000000000028 .L0 
     /tmp/ccB2SuJH.s:43     .text:0000000000000028 .L0 
     /tmp/ccB2SuJH.s:45     .text:000000000000002c .L0 
     /tmp/ccB2SuJH.s:49     .text:0000000000000034 .L0 
     /tmp/ccB2SuJH.s:61     .text:0000000000000038 .L0 
     /tmp/ccB2SuJH.s:64     .text:000000000000003c .L0 
     /tmp/ccB2SuJH.s:69     .text:0000000000000040 .L0 
     /tmp/ccB2SuJH.s:74     .text:0000000000000048 .L0 
     /tmp/ccB2SuJH.s:86     .text:0000000000000054 .L0 
     /tmp/ccB2SuJH.s:87     .text:0000000000000054 .L0 
     /tmp/ccB2SuJH.s:88     .text:0000000000000054 .L0 
     /tmp/ccB2SuJH.s:93     .text:0000000000000058 .L0 
     /tmp/ccB2SuJH.s:94     .text:0000000000000058 .L0 
     /tmp/ccB2SuJH.s:100    .text:0000000000000064 .L0 
     /tmp/ccB2SuJH.s:101    .text:0000000000000064 .L0 
     /tmp/ccB2SuJH.s:102    .text:0000000000000064 .L0 
     /tmp/ccB2SuJH.s:107    .text:000000000000006c .L0 
     /tmp/ccB2SuJH.s:109    .text:0000000000000070 .L0 
     /tmp/ccB2SuJH.s:111    .text:0000000000000074 .L0 
     /tmp/ccB2SuJH.s:116    .text:0000000000000078 .L0 
     /tmp/ccB2SuJH.s:119    .text:000000000000007c .L0 
     /tmp/ccB2SuJH.s:120    .text:000000000000007c .L0 
     /tmp/ccB2SuJH.s:126    .text:0000000000000080 .L0 
     /tmp/ccB2SuJH.s:128    .text:0000000000000084 .L0 
     /tmp/ccB2SuJH.s:132    .text:0000000000000088 .L0 
     /tmp/ccB2SuJH.s:134    .text:000000000000008c .L0 
     /tmp/ccB2SuJH.s:136    .text:0000000000000090 .L0 
     /tmp/ccB2SuJH.s:143    .text:0000000000000098 .L0 
     /tmp/ccB2SuJH.s:151    .text:00000000000000a0 .L0 
     /tmp/ccB2SuJH.s:152    .text:00000000000000a0 .L0 
     /tmp/ccB2SuJH.s:155    .text:00000000000000a8 .L0 
     /tmp/ccB2SuJH.s:156    .text:00000000000000ac .L0 
     /tmp/ccB2SuJH.s:158    .text:00000000000000b0 .L0 
     /tmp/ccB2SuJH.s:159    .text:00000000000000b0 .L0 
     /tmp/ccB2SuJH.s:161    .text:00000000000000b4 .L0 
     /tmp/ccB2SuJH.s:163    .text:00000000000000b8 .L0 
     /tmp/ccB2SuJH.s:165    .text:00000000000000bc .L0 
     /tmp/ccB2SuJH.s:167    .text:00000000000000c0 .L0 
     /tmp/ccB2SuJH.s:173    .text:00000000000000c0 _ZN3TCBC2EPFvPvES0_Pm
     /tmp/ccB2SuJH.s:176    .text:00000000000000c0 .L0 
     /tmp/ccB2SuJH.s:178    .text:00000000000000c0 .L0 
     /tmp/ccB2SuJH.s:179    .text:00000000000000c4 .L0 
GAS LISTING /tmp/ccB2SuJH.s 			page 25


     /tmp/ccB2SuJH.s:184    .text:00000000000000d4 .L0 
     /tmp/ccB2SuJH.s:185    .text:00000000000000d4 .L0 
     /tmp/ccB2SuJH.s:186    .text:00000000000000d4 .L0 
     /tmp/ccB2SuJH.s:187    .text:00000000000000d4 .L0 
     /tmp/ccB2SuJH.s:189    .text:00000000000000d8 .L0 
     /tmp/ccB2SuJH.s:197    .text:00000000000000e0 .L0 
     /tmp/ccB2SuJH.s:203    .text:00000000000000e8 .L0 
     /tmp/ccB2SuJH.s:204    .text:00000000000000e8 .L0 
     /tmp/ccB2SuJH.s:206    .text:00000000000000ec .L0 
     /tmp/ccB2SuJH.s:207    .text:00000000000000ec .L0 
     /tmp/ccB2SuJH.s:209    .text:00000000000000f0 .L0 
     /tmp/ccB2SuJH.s:210    .text:00000000000000f0 .L0 
     /tmp/ccB2SuJH.s:213    .text:00000000000000f8 .L0 
     /tmp/ccB2SuJH.s:214    .text:00000000000000f8 .L0 
     /tmp/ccB2SuJH.s:216    .text:00000000000000fc .L0 
     /tmp/ccB2SuJH.s:217    .text:00000000000000fc .L0 
     /tmp/ccB2SuJH.s:219    .text:0000000000000100 .L0 
     /tmp/ccB2SuJH.s:220    .text:0000000000000100 .L0 
     /tmp/ccB2SuJH.s:224    .text:0000000000000110 .L0 
     /tmp/ccB2SuJH.s:227    .text:0000000000000118 .L0 
     /tmp/ccB2SuJH.s:228    .text:0000000000000118 .L0 
     /tmp/ccB2SuJH.s:230    .text:000000000000011c .L0 
     /tmp/ccB2SuJH.s:232    .text:0000000000000120 .L0 
     /tmp/ccB2SuJH.s:233    .text:0000000000000120 .L0 
     /tmp/ccB2SuJH.s:237    .text:0000000000000128 .L0 
     /tmp/ccB2SuJH.s:238    .text:0000000000000128 .L0 
     /tmp/ccB2SuJH.s:241    .text:0000000000000134 .L0 
     /tmp/ccB2SuJH.s:242    .text:0000000000000134 .L0 
     /tmp/ccB2SuJH.s:246    .text:000000000000013c .L0 
     /tmp/ccB2SuJH.s:249    .text:0000000000000140 .L0 
     /tmp/ccB2SuJH.s:250    .text:0000000000000144 .L0 
     /tmp/ccB2SuJH.s:252    .text:0000000000000148 .L0 
     /tmp/ccB2SuJH.s:253    .text:0000000000000148 .L0 
     /tmp/ccB2SuJH.s:255    .text:000000000000014c .L0 
     /tmp/ccB2SuJH.s:258    .text:0000000000000150 .L0 
     /tmp/ccB2SuJH.s:261    .text:0000000000000154 .L0 
     /tmp/ccB2SuJH.s:263    .text:0000000000000158 .L0 
     /tmp/ccB2SuJH.s:173    .text:00000000000000c0 _ZN3TCBC1EPFvPvES0_Pm
     /tmp/ccB2SuJH.s:271    .text:0000000000000158 _ZN3TCB12createThreadEPFvPvES0_S0_
     /tmp/ccB2SuJH.s:274    .text:0000000000000158 .L0 
     /tmp/ccB2SuJH.s:5367   .data.rel.local.DW.ref.__gxx_personality_v0:0000000000000000 DW.ref.__gxx_personality_v0
     /tmp/ccB2SuJH.s:278    .text:0000000000000158 .L0 
     /tmp/ccB2SuJH.s:279    .text:000000000000015c .L0 
     /tmp/ccB2SuJH.s:286    .text:0000000000000174 .L0 
     /tmp/ccB2SuJH.s:287    .text:0000000000000174 .L0 
     /tmp/ccB2SuJH.s:288    .text:0000000000000174 .L0 
     /tmp/ccB2SuJH.s:289    .text:0000000000000174 .L0 
     /tmp/ccB2SuJH.s:290    .text:0000000000000174 .L0 
     /tmp/ccB2SuJH.s:291    .text:0000000000000174 .L0 
     /tmp/ccB2SuJH.s:293    .text:0000000000000178 .L0 
     /tmp/ccB2SuJH.s:299    .text:0000000000000184 .L0 
     /tmp/ccB2SuJH.s:302    .text:0000000000000184 .L0 
     /tmp/ccB2SuJH.s:303    .text:0000000000000184 .L0 
     /tmp/ccB2SuJH.s:304    .text:0000000000000184 .L0 
     /tmp/ccB2SuJH.s:315    .text:0000000000000194 .L0 
     /tmp/ccB2SuJH.s:323    .text:00000000000001a8 .L0 
     /tmp/ccB2SuJH.s:326    .text:00000000000001ac .L0 
GAS LISTING /tmp/ccB2SuJH.s 			page 26


     /tmp/ccB2SuJH.s:328    .text:00000000000001b4 .L0 
     /tmp/ccB2SuJH.s:329    .text:00000000000001b4 .L0 
     /tmp/ccB2SuJH.s:331    .text:00000000000001b8 .L0 
     /tmp/ccB2SuJH.s:332    .text:00000000000001b8 .L0 
     /tmp/ccB2SuJH.s:334    .text:00000000000001bc .L0 
     /tmp/ccB2SuJH.s:337    .text:00000000000001c0 .L0 
     /tmp/ccB2SuJH.s:340    .text:00000000000001c4 .L0 
     /tmp/ccB2SuJH.s:343    .text:00000000000001c8 .L0 
     /tmp/ccB2SuJH.s:346    .text:00000000000001cc .L0 
     /tmp/ccB2SuJH.s:350    .text:00000000000001d0 .L0 
     /tmp/ccB2SuJH.s:352    .text:00000000000001d0 .L0 
     /tmp/ccB2SuJH.s:354    .text:00000000000001d4 .L0 
     /tmp/ccB2SuJH.s:355    .text:00000000000001d4 .L0 
     /tmp/ccB2SuJH.s:357    .text:00000000000001dc .L0 
     /tmp/ccB2SuJH.s:358    .text:00000000000001dc .L0 
     /tmp/ccB2SuJH.s:366    .text:00000000000001e4 .L0 
     /tmp/ccB2SuJH.s:367    .text:00000000000001e4 .L0 
     /tmp/ccB2SuJH.s:377    .text:00000000000001fc .L0 
     /tmp/ccB2SuJH.s:403    .text:00000000000001fc _ZN3TCBC2EPFvPvES0_
     /tmp/ccB2SuJH.s:406    .text:00000000000001fc .L0 
     /tmp/ccB2SuJH.s:408    .text:00000000000001fc .L0 
     /tmp/ccB2SuJH.s:409    .text:0000000000000200 .L0 
     /tmp/ccB2SuJH.s:411    .text:0000000000000204 .L0 
     /tmp/ccB2SuJH.s:413    .text:0000000000000208 .L0 
     /tmp/ccB2SuJH.s:419    .text:0000000000000208 .L0 
     /tmp/ccB2SuJH.s:425    .text:0000000000000210 .L0 
     /tmp/ccB2SuJH.s:426    .text:0000000000000210 .L0 
     /tmp/ccB2SuJH.s:428    .text:0000000000000214 .L0 
     /tmp/ccB2SuJH.s:429    .text:0000000000000214 .L0 
     /tmp/ccB2SuJH.s:432    .text:0000000000000218 .L0 
     /tmp/ccB2SuJH.s:433    .text:000000000000021c .L0 
     /tmp/ccB2SuJH.s:434    .text:000000000000021c .L0 
     /tmp/ccB2SuJH.s:436    .text:0000000000000220 .L0 
     /tmp/ccB2SuJH.s:438    .text:0000000000000224 .L0 
     /tmp/ccB2SuJH.s:403    .text:00000000000001fc _ZN3TCBC1EPFvPvES0_
     /tmp/ccB2SuJH.s:446    .text:0000000000000224 _ZN3TCB5startEv
     /tmp/ccB2SuJH.s:449    .text:0000000000000224 .L0 
     /tmp/ccB2SuJH.s:451    .text:0000000000000224 .L0 
     /tmp/ccB2SuJH.s:454    .text:0000000000000224 .L0 
     /tmp/ccB2SuJH.s:455    .text:0000000000000224 .L0 
     /tmp/ccB2SuJH.s:456    .text:0000000000000224 .L0 
     /tmp/ccB2SuJH.s:461    .text:0000000000000228 .L0 
     /tmp/ccB2SuJH.s:465    .text:0000000000000230 .L0 
     /tmp/ccB2SuJH.s:466    .text:0000000000000234 .L0 
     /tmp/ccB2SuJH.s:469    .text:000000000000023c .L0 
     /tmp/ccB2SuJH.s:470    .text:000000000000023c .L0 
     /tmp/ccB2SuJH.s:472    .text:0000000000000240 .L0 
     /tmp/ccB2SuJH.s:474    .text:0000000000000240 .L0 
     /tmp/ccB2SuJH.s:475    .text:0000000000000240 .L0 
     /tmp/ccB2SuJH.s:478    .text:0000000000000248 .L0 
     /tmp/ccB2SuJH.s:479    .text:000000000000024c .L0 
     /tmp/ccB2SuJH.s:481    .text:0000000000000250 .L0 
     /tmp/ccB2SuJH.s:482    .text:0000000000000250 .L0 
     /tmp/ccB2SuJH.s:484    .text:0000000000000254 .L0 
     /tmp/ccB2SuJH.s:486    .text:0000000000000258 .L0 
     /tmp/ccB2SuJH.s:492    .text:0000000000000258 _ZN3TCB8dispatchEv
     /tmp/ccB2SuJH.s:495    .text:0000000000000258 .L0 
GAS LISTING /tmp/ccB2SuJH.s 			page 27


     /tmp/ccB2SuJH.s:496    .text:0000000000000258 .L0 
     /tmp/ccB2SuJH.s:497    .text:000000000000025c .L0 
     /tmp/ccB2SuJH.s:501    .text:0000000000000268 .L0 
     /tmp/ccB2SuJH.s:502    .text:0000000000000268 .L0 
     /tmp/ccB2SuJH.s:503    .text:0000000000000268 .L0 
     /tmp/ccB2SuJH.s:505    .text:000000000000026c .L0 
     /tmp/ccB2SuJH.s:507    .text:000000000000026c .L0 
     /tmp/ccB2SuJH.s:508    .text:000000000000026c .L0 
     /tmp/ccB2SuJH.s:513    .text:0000000000000274 .L0 
     /tmp/ccB2SuJH.s:514    .text:0000000000000274 .L0 
     /tmp/ccB2SuJH.s:515    .text:0000000000000274 .L0 
     /tmp/ccB2SuJH.s:520    .text:0000000000000278 .L0 
     /tmp/ccB2SuJH.s:525    .text:000000000000027c .L0 
     /tmp/ccB2SuJH.s:526    .text:000000000000027c .L0 
     /tmp/ccB2SuJH.s:531    .text:0000000000000280 .L0 
     /tmp/ccB2SuJH.s:534    .text:0000000000000284 .L0 
     /tmp/ccB2SuJH.s:535    .text:0000000000000284 .L0 
     /tmp/ccB2SuJH.s:538    .text:000000000000028c .L0 
     /tmp/ccB2SuJH.s:542    .text:0000000000000298 .L0 
     /tmp/ccB2SuJH.s:543    .text:0000000000000298 .L0 
     /tmp/ccB2SuJH.s:549    .text:00000000000002a8 .L0 
     /tmp/ccB2SuJH.s:550    .text:00000000000002a8 .L0 
     /tmp/ccB2SuJH.s:553    .text:00000000000002b0 .L0 
     /tmp/ccB2SuJH.s:556    .text:00000000000002b8 .L0 
     /tmp/ccB2SuJH.s:557    .text:00000000000002b8 .L0 
     /tmp/ccB2SuJH.s:558    .text:00000000000002b8 .L0 
     /tmp/ccB2SuJH.s:563    .text:00000000000002c0 .L0 
     /tmp/ccB2SuJH.s:564    .text:00000000000002c0 .L0 
     /tmp/ccB2SuJH.s:569    .text:00000000000002c4 .L0 
     /tmp/ccB2SuJH.s:574    .text:00000000000002c8 .L0 
     /tmp/ccB2SuJH.s:575    .text:00000000000002c8 .L0 
     /tmp/ccB2SuJH.s:580    .text:00000000000002cc .L0 
     /tmp/ccB2SuJH.s:582    .text:00000000000002d0 .L0 
     /tmp/ccB2SuJH.s:583    .text:00000000000002d0 .L0 
     /tmp/ccB2SuJH.s:588    .text:00000000000002e0 .L0 
     /tmp/ccB2SuJH.s:589    .text:00000000000002e4 .L0 
     /tmp/ccB2SuJH.s:591    .text:00000000000002e8 .L0 
     /tmp/ccB2SuJH.s:592    .text:00000000000002e8 .L0 
     /tmp/ccB2SuJH.s:594    .text:00000000000002ec .L0 
     /tmp/ccB2SuJH.s:597    .text:00000000000002f0 .L0 
     /tmp/ccB2SuJH.s:599    .text:00000000000002f4 .L0 
     /tmp/ccB2SuJH.s:605    .text:00000000000002f4 _ZN3TCB7wrapperEPv
     /tmp/ccB2SuJH.s:608    .text:00000000000002f4 .L0 
     /tmp/ccB2SuJH.s:610    .text:00000000000002f4 .L0 
     /tmp/ccB2SuJH.s:611    .text:00000000000002f4 .L0 
     /tmp/ccB2SuJH.s:613    .text:00000000000002f8 .L0 
     /tmp/ccB2SuJH.s:614    .text:00000000000002fc .L0 
     /tmp/ccB2SuJH.s:617    .text:0000000000000304 .L0 
     /tmp/ccB2SuJH.s:618    .text:0000000000000304 .L0 
     /tmp/ccB2SuJH.s:620    .text:0000000000000308 .L0 
     /tmp/ccB2SuJH.s:622    .text:0000000000000308 .L0 
     /tmp/ccB2SuJH.s:623    .text:0000000000000308 .L0 
     /tmp/ccB2SuJH.s:626    .text:0000000000000310 .L0 
     /tmp/ccB2SuJH.s:629    .text:0000000000000314 .L0 
     /tmp/ccB2SuJH.s:630    .text:0000000000000318 .L0 
     /tmp/ccB2SuJH.s:632    .text:000000000000031c .L0 
     /tmp/ccB2SuJH.s:633    .text:000000000000031c .L0 
GAS LISTING /tmp/ccB2SuJH.s 			page 28


     /tmp/ccB2SuJH.s:635    .text:0000000000000320 .L0 
     /tmp/ccB2SuJH.s:640    .text:0000000000000328 .L0 
     /tmp/ccB2SuJH.s:646    .text:0000000000000328 _ZN3TCB9checkBodyEv
     /tmp/ccB2SuJH.s:649    .text:0000000000000328 .L0 
     /tmp/ccB2SuJH.s:650    .text:0000000000000328 .L0 
     /tmp/ccB2SuJH.s:651    .text:000000000000032c .L0 
     /tmp/ccB2SuJH.s:653    .text:0000000000000330 .L0 
     /tmp/ccB2SuJH.s:655    .text:0000000000000334 .L0 
     /tmp/ccB2SuJH.s:657    .text:0000000000000334 .L0 
     /tmp/ccB2SuJH.s:658    .text:0000000000000334 .L0 
     /tmp/ccB2SuJH.s:663    .text:000000000000033c .L0 
     /tmp/ccB2SuJH.s:664    .text:000000000000033c .L0 
     /tmp/ccB2SuJH.s:669    .text:0000000000000340 .L0 
     /tmp/ccB2SuJH.s:671    .text:0000000000000344 .L0 
     /tmp/ccB2SuJH.s:674    .text:0000000000000348 .L0 
     /tmp/ccB2SuJH.s:675    .text:000000000000034c .L0 
     /tmp/ccB2SuJH.s:676    .text:000000000000034c .L0 
     /tmp/ccB2SuJH.s:677    .text:000000000000034c .L0 
     /tmp/ccB2SuJH.s:679    .text:0000000000000350 .L0 
     /tmp/ccB2SuJH.s:682    .text:0000000000000354 .L0 
     /tmp/ccB2SuJH.s:684    .text:0000000000000354 .L0 
     /tmp/ccB2SuJH.s:686    .text:000000000000035c .L0 
     /tmp/ccB2SuJH.s:692    .text:000000000000035c _ZN3TCB8checkArgEv
     /tmp/ccB2SuJH.s:695    .text:000000000000035c .L0 
     /tmp/ccB2SuJH.s:696    .text:000000000000035c .L0 
     /tmp/ccB2SuJH.s:697    .text:0000000000000360 .L0 
     /tmp/ccB2SuJH.s:699    .text:0000000000000364 .L0 
     /tmp/ccB2SuJH.s:701    .text:0000000000000368 .L0 
     /tmp/ccB2SuJH.s:703    .text:0000000000000368 .L0 
     /tmp/ccB2SuJH.s:704    .text:0000000000000368 .L0 
     /tmp/ccB2SuJH.s:709    .text:0000000000000370 .L0 
     /tmp/ccB2SuJH.s:710    .text:0000000000000370 .L0 
     /tmp/ccB2SuJH.s:715    .text:0000000000000374 .L0 
     /tmp/ccB2SuJH.s:717    .text:0000000000000378 .L0 
     /tmp/ccB2SuJH.s:720    .text:000000000000037c .L0 
     /tmp/ccB2SuJH.s:721    .text:0000000000000380 .L0 
     /tmp/ccB2SuJH.s:722    .text:0000000000000380 .L0 
     /tmp/ccB2SuJH.s:723    .text:0000000000000380 .L0 
     /tmp/ccB2SuJH.s:725    .text:0000000000000384 .L0 
     /tmp/ccB2SuJH.s:728    .text:0000000000000388 .L0 
     /tmp/ccB2SuJH.s:730    .text:0000000000000388 .L0 
     /tmp/ccB2SuJH.s:732    .text:0000000000000390 .L0 
     /tmp/ccB2SuJH.s:738    .text:0000000000000390 _ZN3TCB4joinEv
     /tmp/ccB2SuJH.s:741    .text:0000000000000390 .L0 
     /tmp/ccB2SuJH.s:743    .text:0000000000000390 .L0 
     /tmp/ccB2SuJH.s:744    .text:0000000000000394 .L0 
     /tmp/ccB2SuJH.s:750    .text:00000000000003a8 .L0 
     /tmp/ccB2SuJH.s:751    .text:00000000000003a8 .L0 
     /tmp/ccB2SuJH.s:752    .text:00000000000003a8 .L0 
     /tmp/ccB2SuJH.s:753    .text:00000000000003a8 .L0 
     /tmp/ccB2SuJH.s:754    .text:00000000000003a8 .L0 
     /tmp/ccB2SuJH.s:756    .text:00000000000003ac .L0 
     /tmp/ccB2SuJH.s:758    .text:00000000000003ac .L0 
     /tmp/ccB2SuJH.s:759    .text:00000000000003ac .L0 
     /tmp/ccB2SuJH.s:761    .text:00000000000003b4 .L0 
     /tmp/ccB2SuJH.s:767    .text:00000000000003bc .L0 
     /tmp/ccB2SuJH.s:768    .text:00000000000003bc .L0 
GAS LISTING /tmp/ccB2SuJH.s 			page 29


     /tmp/ccB2SuJH.s:773    .text:00000000000003c0 .L0 
     /tmp/ccB2SuJH.s:777    .text:00000000000003c4 .L0 
     /tmp/ccB2SuJH.s:778    .text:00000000000003c8 .L0 
     /tmp/ccB2SuJH.s:779    .text:00000000000003c8 .L0 
     /tmp/ccB2SuJH.s:781    .text:00000000000003cc .L0 
     /tmp/ccB2SuJH.s:782    .text:00000000000003cc .L0 
     /tmp/ccB2SuJH.s:784    .text:00000000000003d0 .L0 
     /tmp/ccB2SuJH.s:786    .text:00000000000003d4 .L0 
     /tmp/ccB2SuJH.s:788    .text:00000000000003d8 .L0 
     /tmp/ccB2SuJH.s:790    .text:00000000000003dc .L0 
     /tmp/ccB2SuJH.s:794    .text:00000000000003e0 .L0 
     /tmp/ccB2SuJH.s:798    .text:00000000000003e0 .L0 
     /tmp/ccB2SuJH.s:799    .text:00000000000003e0 .L0 
     /tmp/ccB2SuJH.s:800    .text:00000000000003e0 .L0 
     /tmp/ccB2SuJH.s:806    .text:00000000000003e8 .L0 
     /tmp/ccB2SuJH.s:807    .text:00000000000003e8 .L0 
     /tmp/ccB2SuJH.s:812    .text:00000000000003ec .L0 
     /tmp/ccB2SuJH.s:819    .text:00000000000003f8 .L0 
     /tmp/ccB2SuJH.s:823    .text:00000000000003fc .L0 
     /tmp/ccB2SuJH.s:825    .text:0000000000000400 .L0 
     /tmp/ccB2SuJH.s:830    .text:0000000000000404 .L0 
     /tmp/ccB2SuJH.s:838    .text:0000000000000410 .L0 
     /tmp/ccB2SuJH.s:840    .text:0000000000000414 .L0 
     /tmp/ccB2SuJH.s:845    .text:0000000000000418 .L0 
     /tmp/ccB2SuJH.s:847    .text:000000000000041c .L0 
     /tmp/ccB2SuJH.s:851    .text:0000000000000424 .L0 
     /tmp/ccB2SuJH.s:858    .text:0000000000000430 .L0 
     /tmp/ccB2SuJH.s:859    .text:0000000000000430 .L0 
     /tmp/ccB2SuJH.s:869    .text:000000000000043c .L0 
     /tmp/ccB2SuJH.s:877    .text:0000000000000448 .L0 
     /tmp/ccB2SuJH.s:879    .text:000000000000044c .L0 
     /tmp/ccB2SuJH.s:884    .text:0000000000000450 .L0 
     /tmp/ccB2SuJH.s:889    .text:000000000000045c .L0 
     /tmp/ccB2SuJH.s:898    .bss:0000000000000000 _ZN3TCB7runningE
     /tmp/ccB2SuJH.s:895    .bss:0000000000000000 .LANCHOR0
     /tmp/ccB2SuJH.s:902    .bss:0000000000000008 _ZL2ID
     /tmp/ccB2SuJH.s:911    .text:000000000000045c .L0 
     /tmp/ccB2SuJH.s:32     .text:0000000000000020 .L0 
     /tmp/ccB2SuJH.s:102    .text:0000000000000064 .L0 
     /tmp/ccB2SuJH.s:220    .text:0000000000000100 .L0 
     /tmp/ccB2SuJH.s:238    .text:0000000000000128 .L0 
     /tmp/ccB2SuJH.s:355    .text:00000000000001d4 .L0 
     /tmp/ccB2SuJH.s:508    .text:000000000000026c .L0 
     /tmp/ccB2SuJH.s:538    .text:000000000000028c .L0 
     /tmp/ccB2SuJH.s:553    .text:00000000000002b0 .L0 
     /tmp/ccB2SuJH.s:558    .text:00000000000002b8 .L0 
     /tmp/ccB2SuJH.s:658    .text:0000000000000334 .L0 
     /tmp/ccB2SuJH.s:704    .text:0000000000000368 .L0 
     /tmp/ccB2SuJH.s:759    .text:00000000000003ac .L0 
     /tmp/ccB2SuJH.s:97     .text:0000000000000064 .L5
     /tmp/ccB2SuJH.s:146    .text:00000000000000a0 .L2
     /tmp/ccB2SuJH.s:139    .text:0000000000000098 .L6
     /tmp/ccB2SuJH.s:62     .text:000000000000003c .L4
     /tmp/ccB2SuJH.s:51     .text:0000000000000038 .L8
     /tmp/ccB2SuJH.s:78     .text:0000000000000054 .L3
     /tmp/ccB2SuJH.s:235    .text:0000000000000128 .L10
     /tmp/ccB2SuJH.s:349    .text:00000000000001d0 .L17
GAS LISTING /tmp/ccB2SuJH.s 			page 30


     /tmp/ccB2SuJH.s:324    .text:00000000000001ac .L12
     /tmp/ccB2SuJH.s:463    .text:0000000000000230 .L26
     /tmp/ccB2SuJH.s:532    .text:0000000000000284 .L28
     /tmp/ccB2SuJH.s:540    .text:0000000000000298 .L33
     /tmp/ccB2SuJH.s:554    .text:00000000000002b8 .L30
     /tmp/ccB2SuJH.s:547    .text:00000000000002a8 .L29
     /tmp/ccB2SuJH.s:638    .text:0000000000000324 .L37
     /tmp/ccB2SuJH.s:681    .text:0000000000000354 .L42
     /tmp/ccB2SuJH.s:672    .text:0000000000000348 .L41
     /tmp/ccB2SuJH.s:727    .text:0000000000000388 .L46
     /tmp/ccB2SuJH.s:718    .text:000000000000037c .L45
     /tmp/ccB2SuJH.s:775    .text:00000000000003c4 .L48
     /tmp/ccB2SuJH.s:793    .text:00000000000003e0 .L55
     /tmp/ccB2SuJH.s:821    .text:00000000000003fc .L51
     /tmp/ccB2SuJH.s:817    .text:00000000000003f8 .L56
     /tmp/ccB2SuJH.s:863    .text:000000000000043c .L57
     /tmp/ccB2SuJH.s:849    .text:0000000000000424 .L53
     /tmp/ccB2SuJH.s:306    .text:0000000000000188 .LEHB0
     /tmp/ccB2SuJH.s:272    .text:0000000000000158 .LFB54
     /tmp/ccB2SuJH.s:309    .text:0000000000000190 .LEHE0
     /tmp/ccB2SuJH.s:318    .text:00000000000001a0 .LEHB1
     /tmp/ccB2SuJH.s:321    .text:00000000000001a8 .LEHE1
     /tmp/ccB2SuJH.s:360    .text:00000000000001e0 .L15
     /tmp/ccB2SuJH.s:371    .text:00000000000001f4 .LEHB2
     /tmp/ccB2SuJH.s:374    .text:00000000000001fc .LEHE2
     /tmp/ccB2SuJH.s:3079   .debug_abbrev:0000000000000000 .Ldebug_abbrev0
     /tmp/ccB2SuJH.s:5289   .debug_str:00000000000008f6 .LASF170
     /tmp/ccB2SuJH.s:5111   .debug_str:00000000000003ee .LASF171
     /tmp/ccB2SuJH.s:5217   .debug_str:0000000000000746 .LASF172
     /tmp/ccB2SuJH.s:5      .text:0000000000000000 .Ltext0
     /tmp/ccB2SuJH.s:905    .text:000000000000045c .Letext0
     /tmp/ccB2SuJH.s:4987   .debug_line:0000000000000000 .Ldebug_line0
     /tmp/ccB2SuJH.s:5113   .debug_str:00000000000003fa .LASF0
     /tmp/ccB2SuJH.s:5137   .debug_str:00000000000004db .LASF1
     /tmp/ccB2SuJH.s:5223   .debug_str:0000000000000774 .LASF2
     /tmp/ccB2SuJH.s:5233   .debug_str:00000000000007bc .LASF4
     /tmp/ccB2SuJH.s:5123   .debug_str:0000000000000456 .LASF3
     /tmp/ccB2SuJH.s:5001   .debug_str:0000000000000060 .LASF5
     /tmp/ccB2SuJH.s:5185   .debug_str:000000000000063b .LASF6
     /tmp/ccB2SuJH.s:5129   .debug_str:0000000000000496 .LASF7
     /tmp/ccB2SuJH.s:5083   .debug_str:0000000000000309 .LASF8
     /tmp/ccB2SuJH.s:5091   .debug_str:0000000000000346 .LASF9
     /tmp/ccB2SuJH.s:5033   .debug_str:000000000000015d .LASF10
     /tmp/ccB2SuJH.s:5073   .debug_str:00000000000002cb .LASF11
     /tmp/ccB2SuJH.s:5043   .debug_str:00000000000001a2 .LASF12
     /tmp/ccB2SuJH.s:5031   .debug_str:000000000000014d .LASF13
     /tmp/ccB2SuJH.s:5269   .debug_str:0000000000000893 .LASF14
     /tmp/ccB2SuJH.s:5065   .debug_str:0000000000000267 .LASF15
     /tmp/ccB2SuJH.s:5255   .debug_str:0000000000000836 .LASF16
     /tmp/ccB2SuJH.s:5183   .debug_str:000000000000062b .LASF26
     /tmp/ccB2SuJH.s:5035   .debug_str:000000000000016c .LASF17
     /tmp/ccB2SuJH.s:5135   .debug_str:00000000000004d6 .LASF18
     /tmp/ccB2SuJH.s:5025   .debug_str:000000000000010c .LASF19
     /tmp/ccB2SuJH.s:5307   .debug_str:0000000000000a2a .LASF20
     /tmp/ccB2SuJH.s:5251   .debug_str:0000000000000819 .LASF55
     /tmp/ccB2SuJH.s:5215   .debug_str:000000000000073d .LASF21
     /tmp/ccB2SuJH.s:5335   .debug_str:0000000000000ae1 .LASF23
GAS LISTING /tmp/ccB2SuJH.s 			page 31


     /tmp/ccB2SuJH.s:5143   .debug_str:00000000000004fa .LASF22
     /tmp/ccB2SuJH.s:5351   .debug_str:0000000000000b64 .LASF24
     /tmp/ccB2SuJH.s:5121   .debug_str:000000000000044e .LASF51
     /tmp/ccB2SuJH.s:5211   .debug_str:0000000000000719 .LASF53
     /tmp/ccB2SuJH.s:5279   .debug_str:00000000000008c6 .LASF25
     /tmp/ccB2SuJH.s:5273   .debug_str:00000000000008a8 .LASF89
     /tmp/ccB2SuJH.s:5235   .debug_str:00000000000007c3 .LASF27
     /tmp/ccB2SuJH.s:4999   .debug_str:0000000000000054 .LASF28
     /tmp/ccB2SuJH.s:5275   .debug_str:00000000000008b0 .LASF33
     /tmp/ccB2SuJH.s:5169   .debug_str:00000000000005bb .LASF35
     /tmp/ccB2SuJH.s:5017   .debug_str:00000000000000d1 .LASF29
     /tmp/ccB2SuJH.s:5309   .debug_str:0000000000000a2f .LASF30
     /tmp/ccB2SuJH.s:5277   .debug_str:00000000000008bb .LASF31
     /tmp/ccB2SuJH.s:5071   .debug_str:00000000000002b5 .LASF32
     /tmp/ccB2SuJH.s:5227   .debug_str:000000000000078f .LASF34
     /tmp/ccB2SuJH.s:5027   .debug_str:0000000000000111 .LASF36
     /tmp/ccB2SuJH.s:5297   .debug_str:00000000000009f8 .LASF37
     /tmp/ccB2SuJH.s:5145   .debug_str:0000000000000502 .LASF38
     /tmp/ccB2SuJH.s:5181   .debug_str:0000000000000626 .LASF173
     /tmp/ccB2SuJH.s:5205   .debug_str:00000000000006ea .LASF39
     /tmp/ccB2SuJH.s:5117   .debug_str:0000000000000427 .LASF40
     /tmp/ccB2SuJH.s:5167   .debug_str:00000000000005b4 .LASF41
     /tmp/ccB2SuJH.s:5243   .debug_str:00000000000007ea .LASF42
     /tmp/ccB2SuJH.s:5331   .debug_str:0000000000000acc .LASF43
     /tmp/ccB2SuJH.s:5153   .debug_str:0000000000000545 .LASF44
     /tmp/ccB2SuJH.s:5015   .debug_str:00000000000000c9 .LASF45
     /tmp/ccB2SuJH.s:5049   .debug_str:00000000000001c7 .LASF46
     /tmp/ccB2SuJH.s:5345   .debug_str:0000000000000b44 .LASF47
     /tmp/ccB2SuJH.s:5327   .debug_str:0000000000000ab6 .LASF48
     /tmp/ccB2SuJH.s:5267   .debug_str:0000000000000886 .LASF49
     /tmp/ccB2SuJH.s:5097   .debug_str:0000000000000372 .LASF50
     /tmp/ccB2SuJH.s:5141   .debug_str:00000000000004f4 .LASF52
     /tmp/ccB2SuJH.s:5293   .debug_str:00000000000009ce .LASF54
     /tmp/ccB2SuJH.s:5285   .debug_str:00000000000008da .LASF56
     /tmp/ccB2SuJH.s:5281   .debug_str:00000000000008cb .LASF57
     /tmp/ccB2SuJH.s:4989   .debug_str:0000000000000000 .LASF58
     /tmp/ccB2SuJH.s:5353   .debug_str:0000000000000b84 .LASF59
     /tmp/ccB2SuJH.s:5087   .debug_str:000000000000031e .LASF60
     /tmp/ccB2SuJH.s:4995   .debug_str:000000000000001c .LASF63
     /tmp/ccB2SuJH.s:5159   .debug_str:000000000000056f .LASF65
     /tmp/ccB2SuJH.s:5023   .debug_str:00000000000000fc .LASF61
     /tmp/ccB2SuJH.s:5079   .debug_str:00000000000002f3 .LASF62
     /tmp/ccB2SuJH.s:5253   .debug_str:0000000000000823 .LASF64
     /tmp/ccB2SuJH.s:5225   .debug_str:0000000000000782 .LASF66
     /tmp/ccB2SuJH.s:5341   .debug_str:0000000000000b1f .LASF67
     /tmp/ccB2SuJH.s:5291   .debug_str:00000000000009ba .LASF68
     /tmp/ccB2SuJH.s:4993   .debug_str:0000000000000017 .LASF69
     /tmp/ccB2SuJH.s:5349   .debug_str:0000000000000b5e .LASF70
     /tmp/ccB2SuJH.s:5305   .debug_str:0000000000000a22 .LASF71
     /tmp/ccB2SuJH.s:5271   .debug_str:000000000000089f .LASF72
     /tmp/ccB2SuJH.s:5177   .debug_str:0000000000000609 .LASF73
     /tmp/ccB2SuJH.s:5245   .debug_str:00000000000007fc .LASF74
     /tmp/ccB2SuJH.s:5187   .debug_str:000000000000064e .LASF75
     /tmp/ccB2SuJH.s:5021   .debug_str:00000000000000ee .LASF76
     /tmp/ccB2SuJH.s:5147   .debug_str:0000000000000517 .LASF78
     /tmp/ccB2SuJH.s:5047   .debug_str:00000000000001b9 .LASF80
     /tmp/ccB2SuJH.s:4997   .debug_str:000000000000002c .LASF82
GAS LISTING /tmp/ccB2SuJH.s 			page 32


     /tmp/ccB2SuJH.s:5057   .debug_str:000000000000020e .LASF77
     /tmp/ccB2SuJH.s:5039   .debug_str:0000000000000184 .LASF79
     /tmp/ccB2SuJH.s:5319   .debug_str:0000000000000a6f .LASF81
     /tmp/ccB2SuJH.s:5313   .debug_str:0000000000000a4f .LASF83
     /tmp/ccB2SuJH.s:5249   .debug_str:000000000000080f .LASF84
     /tmp/ccB2SuJH.s:5013   .debug_str:00000000000000b5 .LASF85
     /tmp/ccB2SuJH.s:5241   .debug_str:00000000000007e1 .LASF86
     /tmp/ccB2SuJH.s:5175   .debug_str:00000000000005f6 .LASF87
     /tmp/ccB2SuJH.s:5231   .debug_str:00000000000007b1 .LASF174
     /tmp/ccB2SuJH.s:5247   .debug_str:0000000000000804 .LASF88
     /tmp/ccB2SuJH.s:5315   .debug_str:0000000000000a62 .LASF90
     /tmp/ccB2SuJH.s:5219   .debug_str:0000000000000764 .LASF91
     /tmp/ccB2SuJH.s:5005   .debug_str:0000000000000072 .LASF92
     /tmp/ccB2SuJH.s:5067   .debug_str:000000000000027d .LASF93
     /tmp/ccB2SuJH.s:5133   .debug_str:00000000000004bc .LASF94
     /tmp/ccB2SuJH.s:5059   .debug_str:0000000000000217 .LASF95
     /tmp/ccB2SuJH.s:5197   .debug_str:00000000000006a7 .LASF175
     /tmp/ccB2SuJH.s:5085   .debug_str:0000000000000319 .LASF96
     /tmp/ccB2SuJH.s:5155   .debug_str:0000000000000555 .LASF97
     /tmp/ccB2SuJH.s:5299   .debug_str:0000000000000a02 .LASF98
     /tmp/ccB2SuJH.s:5287   .debug_str:00000000000008e2 .LASF99
     /tmp/ccB2SuJH.s:5203   .debug_str:00000000000006d2 .LASF100
     /tmp/ccB2SuJH.s:5051   .debug_str:00000000000001da .LASF176
     /tmp/ccB2SuJH.s:5095   .debug_str:000000000000035a .LASF177
     /tmp/ccB2SuJH.s:5357   .debug_str:0000000000000b9a .LASF101
     /tmp/ccB2SuJH.s:5323   .debug_str:0000000000000a92 .LASF102
     /tmp/ccB2SuJH.s:5201   .debug_str:00000000000006c8 .LASF103
     /tmp/ccB2SuJH.s:5063   .debug_str:0000000000000248 .LASF104
     /tmp/ccB2SuJH.s:5139   .debug_str:00000000000004ee .LASF105
     /tmp/ccB2SuJH.s:5321   .debug_str:0000000000000a77 .LASF106
     /tmp/ccB2SuJH.s:5125   .debug_str:0000000000000468 .LASF107
     /tmp/ccB2SuJH.s:5069   .debug_str:0000000000000296 .LASF108
     /tmp/ccB2SuJH.s:5317   .debug_str:0000000000000a67 .LASF109
     /tmp/ccB2SuJH.s:5295   .debug_str:00000000000009de .LASF110
     /tmp/ccB2SuJH.s:5149   .debug_str:0000000000000530 .LASF111
     /tmp/ccB2SuJH.s:5115   .debug_str:0000000000000407 .LASF112
     /tmp/ccB2SuJH.s:4991   .debug_str:000000000000000f .LASF113
     /tmp/ccB2SuJH.s:5193   .debug_str:0000000000000679 .LASF114
     /tmp/ccB2SuJH.s:5019   .debug_str:00000000000000dd .LASF115
     /tmp/ccB2SuJH.s:5029   .debug_str:0000000000000126 .LASF116
     /tmp/ccB2SuJH.s:5213   .debug_str:0000000000000738 .LASF117
     /tmp/ccB2SuJH.s:5081   .debug_str:00000000000002ff .LASF118
     /tmp/ccB2SuJH.s:5041   .debug_str:0000000000000197 .LASF178
     /tmp/ccB2SuJH.s:5347   .debug_str:0000000000000b4a .LASF179
     /tmp/ccB2SuJH.s:5105   .debug_str:00000000000003ac .LASF180
     /tmp/ccB2SuJH.s:5329   .debug_str:0000000000000ac6 .LASF119
     /tmp/ccB2SuJH.s:5101   .debug_str:000000000000039c .LASF120
     /tmp/ccB2SuJH.s:5109   .debug_str:00000000000003d6 .LASF121
     /tmp/ccB2SuJH.s:5311   .debug_str:0000000000000a46 .LASF122
     /tmp/ccB2SuJH.s:5157   .debug_str:000000000000055a .LASF126
     /tmp/ccB2SuJH.s:5355   .debug_str:0000000000000b91 .LASF123
     /tmp/ccB2SuJH.s:5179   .debug_str:0000000000000611 .LASF124
     /tmp/ccB2SuJH.s:5199   .debug_str:00000000000006c1 .LASF125
     /tmp/ccB2SuJH.s:5207   .debug_str:00000000000006f2 .LASF127
     /tmp/ccB2SuJH.s:5045   .debug_str:00000000000001b2 .LASF128
     /tmp/ccB2SuJH.s:5131   .debug_str:00000000000004a9 .LASF129
     /tmp/ccB2SuJH.s:5337   .debug_str:0000000000000b01 .LASF130
GAS LISTING /tmp/ccB2SuJH.s 			page 33


     /tmp/ccB2SuJH.s:5265   .debug_str:0000000000000872 .LASF131
     /tmp/ccB2SuJH.s:5171   .debug_str:00000000000005d2 .LASF132
     /tmp/ccB2SuJH.s:5075   .debug_str:00000000000002da .LASF133
     /tmp/ccB2SuJH.s:5151   .debug_str:000000000000053d .LASF134
     /tmp/ccB2SuJH.s:5209   .debug_str:0000000000000705 .LASF135
     /tmp/ccB2SuJH.s:5259   .debug_str:000000000000085d .LASF136
     /tmp/ccB2SuJH.s:5119   .debug_str:000000000000043a .LASF137
     /tmp/ccB2SuJH.s:5263   .debug_str:000000000000086b .LASF138
     /tmp/ccB2SuJH.s:5239   .debug_str:00000000000007ce .LASF139
     /tmp/ccB2SuJH.s:5099   .debug_str:0000000000000395 .LASF140
     /tmp/ccB2SuJH.s:5037   .debug_str:0000000000000171 .LASF141
     /tmp/ccB2SuJH.s:5237   .debug_str:00000000000007c8 .LASF142
     /tmp/ccB2SuJH.s:5107   .debug_str:00000000000003c4 .LASF143
     /tmp/ccB2SuJH.s:5301   .debug_str:0000000000000a08 .LASF144
     /tmp/ccB2SuJH.s:5055   .debug_str:00000000000001fc .LASF145
     /tmp/ccB2SuJH.s:5003   .debug_str:0000000000000067 .LASF146
     /tmp/ccB2SuJH.s:5229   .debug_str:0000000000000799 .LASF147
     /tmp/ccB2SuJH.s:5221   .debug_str:0000000000000769 .LASF148
     /tmp/ccB2SuJH.s:5061   .debug_str:0000000000000230 .LASF149
     /tmp/ccB2SuJH.s:5283   .debug_str:00000000000008d0 .LASF150
     /tmp/ccB2SuJH.s:5339   .debug_str:0000000000000b09 .LASF151
     /tmp/ccB2SuJH.s:5325   .debug_str:0000000000000aac .LASF152
     /tmp/ccB2SuJH.s:5165   .debug_str:000000000000059e .LASF153
     /tmp/ccB2SuJH.s:5333   .debug_str:0000000000000ad2 .LASF154
     /tmp/ccB2SuJH.s:5089   .debug_str:000000000000032a .LASF155
     /tmp/ccB2SuJH.s:5009   .debug_str:000000000000009f .LASF156
     /tmp/ccB2SuJH.s:5007   .debug_str:000000000000008e .LASF157
     /tmp/ccB2SuJH.s:5093   .debug_str:0000000000000354 .LASF158
     /tmp/ccB2SuJH.s:5359   .debug_str:0000000000000ba1 .LASF159
     /tmp/ccB2SuJH.s:5189   .debug_str:000000000000065d .LASF160
     /tmp/ccB2SuJH.s:5127   .debug_str:0000000000000474 .LASF161
     /tmp/ccB2SuJH.s:5011   .debug_str:00000000000000a4 .LASF181
     /tmp/ccB2SuJH.s:5077   .debug_str:00000000000002ee .LASF162
     /tmp/ccB2SuJH.s:5173   .debug_str:00000000000005da .LASF164
     /tmp/ccB2SuJH.s:5103   .debug_str:00000000000003a7 .LASF163
     /tmp/ccB2SuJH.s:5303   .debug_str:0000000000000a0e .LASF165
     /tmp/ccB2SuJH.s:739    .text:0000000000000390 .LFB64
     /tmp/ccB2SuJH.s:890    .text:000000000000045c .LFE64
     /tmp/ccB2SuJH.s:4422   .debug_loc:0000000000000000 .LLST33
     /tmp/ccB2SuJH.s:764    .text:00000000000003bc .LBB130
     /tmp/ccB2SuJH.s:771    .text:00000000000003c0 .LBE130
     /tmp/ccB2SuJH.s:4440   .debug_loc:000000000000004c .LLST34
     /tmp/ccB2SuJH.s:796    .text:00000000000003e0 .LBB132
     /tmp/ccB2SuJH.s:804    .text:00000000000003e8 .LBE132
     /tmp/ccB2SuJH.s:4447   .debug_loc:000000000000006f .LLST35
     /tmp/ccB2SuJH.s:4455   .debug_loc:0000000000000093 .LLST36
     /tmp/ccB2SuJH.s:809    .text:00000000000003ec .LBB134
     /tmp/ccB2SuJH.s:4961   .debug_ranges:0000000000000000 .Ldebug_ranges0
     /tmp/ccB2SuJH.s:4462   .debug_loc:00000000000000b6 .LLST37
     /tmp/ccB2SuJH.s:4473   .debug_loc:00000000000000ec .LLST38
     /tmp/ccB2SuJH.s:4484   .debug_loc:0000000000000122 .LLST39
     /tmp/ccB2SuJH.s:827    .text:0000000000000404 .LBB136
     /tmp/ccB2SuJH.s:834    .text:0000000000000410 .LBE136
     /tmp/ccB2SuJH.s:4504   .debug_loc:000000000000017f .LLST40
     /tmp/ccB2SuJH.s:832    .text:0000000000000410 .LVL75
     /tmp/ccB2SuJH.s:835    .text:0000000000000410 .LBB138
     /tmp/ccB2SuJH.s:843    .text:0000000000000418 .LBE138
GAS LISTING /tmp/ccB2SuJH.s 			page 34


     /tmp/ccB2SuJH.s:4512   .debug_loc:00000000000001a3 .LLST41
     /tmp/ccB2SuJH.s:4519   .debug_loc:00000000000001c6 .LLST42
     /tmp/ccB2SuJH.s:866    .text:000000000000043c .LBB140
     /tmp/ccB2SuJH.s:873    .text:0000000000000448 .LBE140
     /tmp/ccB2SuJH.s:4526   .debug_loc:00000000000001e9 .LLST43
     /tmp/ccB2SuJH.s:871    .text:0000000000000448 .LVL80
     /tmp/ccB2SuJH.s:874    .text:0000000000000448 .LBB142
     /tmp/ccB2SuJH.s:882    .text:0000000000000450 .LBE142
     /tmp/ccB2SuJH.s:4534   .debug_loc:000000000000020d .LLST44
     /tmp/ccB2SuJH.s:4541   .debug_loc:0000000000000230 .LLST45
     /tmp/ccB2SuJH.s:860    .text:0000000000000438 .LVL78
     /tmp/ccB2SuJH.s:10     .text:0000000000000000 .LFB63
     /tmp/ccB2SuJH.s:168    .text:00000000000000c0 .LFE63
     /tmp/ccB2SuJH.s:4548   .debug_loc:0000000000000253 .LLST2
     /tmp/ccB2SuJH.s:55     .text:0000000000000038 .LBB75
     /tmp/ccB2SuJH.s:4555   .debug_loc:0000000000000276 .LLST3
     /tmp/ccB2SuJH.s:4566   .debug_loc:00000000000002ac .LLST4
     /tmp/ccB2SuJH.s:4583   .debug_loc:00000000000002f7 .LLST5
     /tmp/ccB2SuJH.s:66     .text:0000000000000040 .LBB79
     /tmp/ccB2SuJH.s:72     .text:0000000000000048 .LBE79
     /tmp/ccB2SuJH.s:4594   .debug_loc:000000000000032d .LLST6
     /tmp/ccB2SuJH.s:70     .text:0000000000000048 .LVL5
     /tmp/ccB2SuJH.s:84     .text:0000000000000054 .LBB84
     /tmp/ccB2SuJH.s:91     .text:0000000000000058 .LBE84
     /tmp/ccB2SuJH.s:4601   .debug_loc:0000000000000350 .LLST7
     /tmp/ccB2SuJH.s:4609   .debug_loc:0000000000000374 .LLST8
     /tmp/ccB2SuJH.s:96     .text:0000000000000064 .LVL8
     /tmp/ccB2SuJH.s:34     .text:0000000000000028 .LBB70
     /tmp/ccB2SuJH.s:39     .text:0000000000000028 .LBE70
     /tmp/ccB2SuJH.s:40     .text:0000000000000028 .LBB72
     /tmp/ccB2SuJH.s:53     .text:0000000000000038 .LBE72
     /tmp/ccB2SuJH.s:4616   .debug_loc:0000000000000397 .LLST0
     /tmp/ccB2SuJH.s:4624   .debug_loc:00000000000003bb .LLST1
     /tmp/ccB2SuJH.s:104    .text:000000000000006c .LBB87
     /tmp/ccB2SuJH.s:114    .text:0000000000000078 .LBE87
     /tmp/ccB2SuJH.s:4631   .debug_loc:00000000000003de .LLST9
     /tmp/ccB2SuJH.s:29     .text:0000000000000020 .LVL0
     /tmp/ccB2SuJH.s:153    .text:00000000000000a8 .LVL15
     /tmp/ccB2SuJH.s:693    .text:000000000000035c .LFB62
     /tmp/ccB2SuJH.s:733    .text:0000000000000390 .LFE62
     /tmp/ccB2SuJH.s:706    .text:0000000000000370 .LBB112
     /tmp/ccB2SuJH.s:713    .text:0000000000000374 .LBE112
     /tmp/ccB2SuJH.s:4640   .debug_loc:0000000000000403 .LLST32
     /tmp/ccB2SuJH.s:647    .text:0000000000000328 .LFB61
     /tmp/ccB2SuJH.s:687    .text:000000000000035c .LFE61
     /tmp/ccB2SuJH.s:660    .text:000000000000033c .LBB110
     /tmp/ccB2SuJH.s:667    .text:0000000000000340 .LBE110
     /tmp/ccB2SuJH.s:4647   .debug_loc:0000000000000426 .LLST31
     /tmp/ccB2SuJH.s:606    .text:00000000000002f4 .LFB60
     /tmp/ccB2SuJH.s:641    .text:0000000000000328 .LFE60
     /tmp/ccB2SuJH.s:4654   .debug_loc:0000000000000449 .LLST30
     /tmp/ccB2SuJH.s:627    .text:0000000000000314 .LVL58
     /tmp/ccB2SuJH.s:493    .text:0000000000000258 .LFB59
     /tmp/ccB2SuJH.s:600    .text:00000000000002f4 .LFE59
     /tmp/ccB2SuJH.s:4672   .debug_loc:0000000000000495 .LLST25
     /tmp/ccB2SuJH.s:511    .text:0000000000000274 .LBB102
     /tmp/ccB2SuJH.s:518    .text:0000000000000278 .LBE102
GAS LISTING /tmp/ccB2SuJH.s 			page 35


     /tmp/ccB2SuJH.s:4679   .debug_loc:00000000000004b8 .LLST26
     /tmp/ccB2SuJH.s:522    .text:000000000000027c .LBB104
     /tmp/ccB2SuJH.s:529    .text:0000000000000280 .LBE104
     /tmp/ccB2SuJH.s:4686   .debug_loc:00000000000004db .LLST27
     /tmp/ccB2SuJH.s:560    .text:00000000000002c0 .LBB106
     /tmp/ccB2SuJH.s:567    .text:00000000000002c4 .LBE106
     /tmp/ccB2SuJH.s:4693   .debug_loc:00000000000004fe .LLST28
     /tmp/ccB2SuJH.s:571    .text:00000000000002c8 .LBB108
     /tmp/ccB2SuJH.s:578    .text:00000000000002cc .LBE108
     /tmp/ccB2SuJH.s:4700   .debug_loc:0000000000000521 .LLST29
     /tmp/ccB2SuJH.s:536    .text:000000000000028c .LVL48
     /tmp/ccB2SuJH.s:545    .text:00000000000002a4 .LVL49
     /tmp/ccB2SuJH.s:551    .text:00000000000002b0 .LVL50
     /tmp/ccB2SuJH.s:586    .text:00000000000002e0 .LVL55
     /tmp/ccB2SuJH.s:447    .text:0000000000000224 .LFB58
     /tmp/ccB2SuJH.s:487    .text:0000000000000258 .LFE58
     /tmp/ccB2SuJH.s:4707   .debug_loc:0000000000000544 .LLST23
     /tmp/ccB2SuJH.s:452    .text:0000000000000224 .LBB100
     /tmp/ccB2SuJH.s:459    .text:0000000000000228 .LBE100
     /tmp/ccB2SuJH.s:4721   .debug_loc:000000000000057d .LLST24
     /tmp/ccB2SuJH.s:476    .text:0000000000000248 .LVL43
     /tmp/ccB2SuJH.s:5195   .debug_str:0000000000000693 .LASF167
     /tmp/ccB2SuJH.s:404    .text:00000000000001fc .LFB56
     /tmp/ccB2SuJH.s:439    .text:0000000000000224 .LFE56
     /tmp/ccB2SuJH.s:416    .text:0000000000000208 .LBB98
     /tmp/ccB2SuJH.s:423    .text:0000000000000210 .LBE98
     /tmp/ccB2SuJH.s:4728   .debug_loc:00000000000005a0 .LLST22
     /tmp/ccB2SuJH.s:378    .text:00000000000001fc .LFE54
     /tmp/ccB2SuJH.s:4737   .debug_loc:00000000000005c5 .LLST15
     /tmp/ccB2SuJH.s:4766   .debug_loc:000000000000063a .LLST16
     /tmp/ccB2SuJH.s:4788   .debug_loc:0000000000000699 .LLST17
     /tmp/ccB2SuJH.s:5191   .debug_str:0000000000000672 .LASF166
     /tmp/ccB2SuJH.s:4810   .debug_loc:00000000000006f8 .LLST18
     /tmp/ccB2SuJH.s:4832   .debug_loc:0000000000000757 .LLST19
     /tmp/ccB2SuJH.s:300    .text:0000000000000184 .LBB93
     /tmp/ccB2SuJH.s:313    .text:0000000000000194 .LBE93
     /tmp/ccB2SuJH.s:4847   .debug_loc:00000000000007a0 .LLST20
     /tmp/ccB2SuJH.s:308    .text:0000000000000190 .LVL26
     /tmp/ccB2SuJH.s:363    .text:00000000000001e4 .LBB95
     /tmp/ccB2SuJH.s:376    .text:00000000000001fc .LBE95
     /tmp/ccB2SuJH.s:4856   .debug_loc:00000000000007c5 .LLST21
     /tmp/ccB2SuJH.s:369    .text:00000000000001f0 .LVL36
     /tmp/ccB2SuJH.s:320    .text:00000000000001a8 .LVL28
     /tmp/ccB2SuJH.s:373    .text:00000000000001fc .LVL37
     /tmp/ccB2SuJH.s:5163   .debug_str:0000000000000588 .LASF168
     /tmp/ccB2SuJH.s:174    .text:00000000000000c0 .LFB52
     /tmp/ccB2SuJH.s:264    .text:0000000000000158 .LFE52
     /tmp/ccB2SuJH.s:4863   .debug_loc:00000000000007e8 .LLST10
     /tmp/ccB2SuJH.s:4881   .debug_loc:0000000000000834 .LLST11
     /tmp/ccB2SuJH.s:4895   .debug_loc:000000000000086d .LLST12
     /tmp/ccB2SuJH.s:4909   .debug_loc:00000000000008a6 .LLST13
     /tmp/ccB2SuJH.s:194    .text:00000000000000e0 .LBB91
     /tmp/ccB2SuJH.s:201    .text:00000000000000e8 .LBE91
     /tmp/ccB2SuJH.s:4939   .debug_loc:0000000000000910 .LLST14
     /tmp/ccB2SuJH.s:234    .text:0000000000000128 .LVL19
     /tmp/ccB2SuJH.s:5261   .debug_str:0000000000000865 .LASF169
     /tmp/ccB2SuJH.s:5257   .debug_str:000000000000084c .LASF182
GAS LISTING /tmp/ccB2SuJH.s 			page 36


     /tmp/ccB2SuJH.s:5161   .debug_str:000000000000057c .LASF183
     /tmp/ccB2SuJH.s:5343   .debug_str:0000000000000b35 .LASF184
     /tmp/ccB2SuJH.s:5053   .debug_str:00000000000001e4 .LASF185
     /tmp/ccB2SuJH.s:742    .text:0000000000000390 .LVL64
     /tmp/ccB2SuJH.s:774    .text:00000000000003c4 .LVL67
     /tmp/ccB2SuJH.s:792    .text:00000000000003e0 .LVL68
     /tmp/ccB2SuJH.s:763    .text:00000000000003bc .LVL65
     /tmp/ccB2SuJH.s:769    .text:00000000000003c0 .LVL66
     /tmp/ccB2SuJH.s:802    .text:00000000000003e8 .LVL69
     /tmp/ccB2SuJH.s:808    .text:00000000000003ec .LVL70
     /tmp/ccB2SuJH.s:854    .text:0000000000000430 .LVL77
     /tmp/ccB2SuJH.s:862    .text:000000000000043c .LVL79
     /tmp/ccB2SuJH.s:813    .text:00000000000003f0 .LVL71
     /tmp/ccB2SuJH.s:816    .text:00000000000003f8 .LVL72
     /tmp/ccB2SuJH.s:826    .text:0000000000000404 .LVL74
     /tmp/ccB2SuJH.s:841    .text:0000000000000418 .LVL76
     /tmp/ccB2SuJH.s:880    .text:0000000000000450 .LVL81
     /tmp/ccB2SuJH.s:77     .text:0000000000000054 .LVL6
     /tmp/ccB2SuJH.s:50     .text:0000000000000038 .LVL3
     /tmp/ccB2SuJH.s:121    .text:0000000000000080 .LVL11
     /tmp/ccB2SuJH.s:145    .text:00000000000000a0 .LVL14
     /tmp/ccB2SuJH.s:65     .text:0000000000000040 .LVL4
     /tmp/ccB2SuJH.s:129    .text:0000000000000088 .LVL12
     /tmp/ccB2SuJH.s:138    .text:0000000000000098 .LVL13
     /tmp/ccB2SuJH.s:89     .text:0000000000000058 .LVL7
     /tmp/ccB2SuJH.s:33     .text:0000000000000028 .LVL1
     /tmp/ccB2SuJH.s:47     .text:0000000000000034 .LVL2
     /tmp/ccB2SuJH.s:103    .text:000000000000006c .LVL9
     /tmp/ccB2SuJH.s:112    .text:0000000000000078 .LVL10
     /tmp/ccB2SuJH.s:705    .text:0000000000000370 .LVL62
     /tmp/ccB2SuJH.s:711    .text:0000000000000374 .LVL63
     /tmp/ccB2SuJH.s:659    .text:000000000000033c .LVL60
     /tmp/ccB2SuJH.s:665    .text:0000000000000340 .LVL61
     /tmp/ccB2SuJH.s:609    .text:00000000000002f4 .LVL57
     /tmp/ccB2SuJH.s:637    .text:0000000000000324 .LVL59
     /tmp/ccB2SuJH.s:509    .text:0000000000000274 .LVL44
     /tmp/ccB2SuJH.s:595    .text:00000000000002ec .LVL56
     /tmp/ccB2SuJH.s:516    .text:0000000000000278 .LVL45
     /tmp/ccB2SuJH.s:521    .text:000000000000027c .LVL46
     /tmp/ccB2SuJH.s:527    .text:0000000000000280 .LVL47
     /tmp/ccB2SuJH.s:559    .text:00000000000002c0 .LVL51
     /tmp/ccB2SuJH.s:565    .text:00000000000002c4 .LVL52
     /tmp/ccB2SuJH.s:570    .text:00000000000002c8 .LVL53
     /tmp/ccB2SuJH.s:576    .text:00000000000002cc .LVL54
     /tmp/ccB2SuJH.s:450    .text:0000000000000224 .LVL41
     /tmp/ccB2SuJH.s:457    .text:0000000000000228 .LVL42
     /tmp/ccB2SuJH.s:414    .text:0000000000000208 .LVL39
     /tmp/ccB2SuJH.s:421    .text:0000000000000210 .LVL40
     /tmp/ccB2SuJH.s:277    .text:0000000000000158 .LVL23
     /tmp/ccB2SuJH.s:305    .text:0000000000000188 .LVL25
     /tmp/ccB2SuJH.s:335    .text:00000000000001bc .LVL29
     /tmp/ccB2SuJH.s:348    .text:00000000000001d0 .LVL33
     /tmp/ccB2SuJH.s:362    .text:00000000000001e4 .LVL35
     /tmp/ccB2SuJH.s:338    .text:00000000000001c0 .LVL30
     /tmp/ccB2SuJH.s:344    .text:00000000000001c8 .LVL32
     /tmp/ccB2SuJH.s:298    .text:0000000000000184 .LVL24
     /tmp/ccB2SuJH.s:341    .text:00000000000001c4 .LVL31
GAS LISTING /tmp/ccB2SuJH.s 			page 37


     /tmp/ccB2SuJH.s:359    .text:00000000000001e0 .LVL34
     /tmp/ccB2SuJH.s:311    .text:0000000000000194 .LVL27
     /tmp/ccB2SuJH.s:177    .text:00000000000000c0 .LVL16
     /tmp/ccB2SuJH.s:256    .text:000000000000014c .LVL21
     /tmp/ccB2SuJH.s:244    .text:000000000000013c .LVL20
     /tmp/ccB2SuJH.s:259    .text:0000000000000150 .LVL22
     /tmp/ccB2SuJH.s:192    .text:00000000000000e0 .LVL17
     /tmp/ccB2SuJH.s:199    .text:00000000000000e8 .LVL18
     /tmp/ccB2SuJH.s:912    .debug_info:0000000000000000 .Ldebug_info0
     /tmp/ccB2SuJH.s:54     .text:0000000000000038 .LBB74
     /tmp/ccB2SuJH.s:98     .text:0000000000000064 .LBE74
     /tmp/ccB2SuJH.s:117    .text:000000000000007c .LBB89
     /tmp/ccB2SuJH.s:149    .text:00000000000000a0 .LBE89
     /tmp/ccB2SuJH.s:82     .text:0000000000000054 .LBE75
     /tmp/ccB2SuJH.s:122    .text:0000000000000080 .LBB86
     /tmp/ccB2SuJH.s:148    .text:00000000000000a0 .LBE86
     /tmp/ccB2SuJH.s:58     .text:0000000000000038 .LBB78
     /tmp/ccB2SuJH.s:79     .text:0000000000000054 .LBE78
     /tmp/ccB2SuJH.s:130    .text:0000000000000088 .LBB81
     /tmp/ccB2SuJH.s:140    .text:0000000000000098 .LBE81
     /tmp/ccB2SuJH.s:856    .text:0000000000000430 .LBE134
     /tmp/ccB2SuJH.s:864    .text:000000000000043c .LBB145
     /tmp/ccB2SuJH.s:888    .text:000000000000045c .LBE145
     /tmp/ccB2SuJH.s:381    .gcc_except_table:0000000000000000 .LLSDA54

UNDEFINED SYMBOLS
_ZN5Riscv10popSppSpieEv
_ZN15MemoryAllocator7memFreeEPv
_ZN9Scheduler3putEP3TCB
_Z11thread_exitv
_ZN15MemoryAllocator8memAllocEm
_Unwind_Resume
__gxx_personality_v0
_ZN9Scheduler3getEv
_ZN3TCB13contextSwitchEPNS_7ContextES1_
