GAS LISTING /tmp/ccCvb6Lv.s 			page 1


   1              		.file	"userMain.cpp"
   2              		.option pic
   3              		.option norelax
   4              		.text
   5              	.Ltext0:
   6              		.section	.rodata.str1.8,"aMS",@progbits,1
   7              		.align	3
   8              	.LC0:
   9 0000 413A2069 		.string	"A: i="
   9      3D00
  10 0006 0000     		.align	3
  11              	.LC1:
  12 0008 0A00     		.string	"\n"
  13 000a 00000000 		.align	3
  13      0000
  14              	.LC2:
  15 0010 41206669 		.string	"A finished!\n"
  15      6E697368 
  15      6564210A 
  15      00
  16              		.text
  17              		.align	2
  18              		.globl	_Z11workerBodyAPv
  20              	_Z11workerBodyAPv:
  21              	.LFB35:
  22              		.file 1 "src/../h/join.hpp"
   1:src/../h/join.hpp **** #ifndef XV6_THREADS_C_API_TEST_HPP
   2:src/../h/join.hpp **** #define XV6_THREADS_C_API_TEST_HPP
   3:src/../h/join.hpp **** 
   4:src/../h/join.hpp **** #include "../h/syscall_c.hpp"
   5:src/../h/join.hpp **** 
   6:src/../h/join.hpp **** #include "printing.hpp"
   7:src/../h/join.hpp **** thread_t threads[3];
   8:src/../h/join.hpp **** 
   9:src/../h/join.hpp **** void workerBodyA(void* arg) {
  23              		.loc 1 9 29
  24              		.cfi_startproc
  25              	.LVL0:
  26 0000 130101FE 		addi	sp,sp,-32
  27              		.cfi_def_cfa_offset 32
  28 0004 233C1100 		sd	ra,24(sp)
  29 0008 23388100 		sd	s0,16(sp)
  30 000c 23349100 		sd	s1,8(sp)
  31 0010 23302101 		sd	s2,0(sp)
  32              		.cfi_offset 1, -8
  33              		.cfi_offset 8, -16
  34              		.cfi_offset 9, -24
  35              		.cfi_offset 18, -32
  36 0014 13040102 		addi	s0,sp,32
  37              		.cfi_def_cfa 8, 0
  10:src/../h/join.hpp ****     for (uint64 i = 0; i < 10; i++) {
  38              		.loc 1 10 5
  39              	.LVL1:
  40              	.LBB2:
  41              		.loc 1 10 17 is_stmt 0
  42 0018 13090000 		li	s2,0
  43 001c 6F008003 		j	.L7
GAS LISTING /tmp/ccCvb6Lv.s 			page 2


  44              	.LVL2:
  45              	.L4:
  46              	.LBB3:
  47              	.LBB4:
  48              	.LBB5:
  11:src/../h/join.hpp ****         printString("A: i="); printInt(i); printString("\n");
  12:src/../h/join.hpp ****         for (uint64 j = 0; j < 10000; j++) {
  13:src/../h/join.hpp ****             for (uint64 k = 0; k < 30000; k++) { /* busy wait */ }
  14:src/../h/join.hpp ****              thread_dispatch();
  49              		.loc 1 14 14 is_stmt 1 discriminator 2
  50              		.loc 1 14 29 is_stmt 0 discriminator 2
  51 0020 97000000 		call	_Z15thread_dispatchv@plt
  51      E7800000 
  52              	.LVL3:
  53              	.LBE5:
  12:src/../h/join.hpp ****             for (uint64 k = 0; k < 30000; k++) { /* busy wait */ }
  54              		.loc 1 12 9 is_stmt 1 discriminator 2
  55 0028 93841400 		addi	s1,s1,1
  56              	.LVL4:
  57              	.L6:
  12:src/../h/join.hpp ****             for (uint64 k = 0; k < 30000; k++) { /* busy wait */ }
  58              		.loc 1 12 30 discriminator 1
  59 002c B7270000 		li	a5,8192
  60 0030 9387F770 		addi	a5,a5,1807
  61 0034 63EE9700 		bgtu	s1,a5,.L3
  62              	.LBB7:
  63              	.LBB6:
  13:src/../h/join.hpp ****              thread_dispatch();
  64              		.loc 1 13 25 is_stmt 0
  65 0038 13070000 		li	a4,0
  66              	.L5:
  67              	.LVL5:
  13:src/../h/join.hpp ****              thread_dispatch();
  68              		.loc 1 13 34 is_stmt 1 discriminator 3
  69 003c B7770000 		li	a5,28672
  70 0040 9387F752 		addi	a5,a5,1327
  71 0044 E3EEE7FC 		bgtu	a4,a5,.L4
  13:src/../h/join.hpp ****              thread_dispatch();
  72              		.loc 1 13 13 discriminator 2
  73 0048 13071700 		addi	a4,a4,1
  74              	.LVL6:
  75 004c 6FF01FFF 		j	.L5
  76              	.LVL7:
  77              	.L3:
  78              	.LBE6:
  79              	.LBE7:
  80              	.LBE4:
  81              	.LBE3:
  10:src/../h/join.hpp ****         printString("A: i="); printInt(i); printString("\n");
  82              		.loc 1 10 5 discriminator 2
  83 0050 13091900 		addi	s2,s2,1
  84              	.LVL8:
  85              	.L7:
  10:src/../h/join.hpp ****         printString("A: i="); printInt(i); printString("\n");
  86              		.loc 1 10 26 discriminator 1
  87 0054 93079000 		li	a5,9
  88 0058 63E02705 		bgtu	s2,a5,.L2
GAS LISTING /tmp/ccCvb6Lv.s 			page 3


  89              	.LBB9:
  11:src/../h/join.hpp ****         for (uint64 j = 0; j < 10000; j++) {
  90              		.loc 1 11 9
  11:src/../h/join.hpp ****         for (uint64 j = 0; j < 10000; j++) {
  91              		.loc 1 11 20 is_stmt 0
  92 005c 17050000 		lla	a0,.LC0
  92      13050500 
  93 0064 97000000 		call	_Z11printStringPKc@plt
  93      E7800000 
  94              	.LVL9:
  11:src/../h/join.hpp ****         for (uint64 j = 0; j < 10000; j++) {
  95              		.loc 1 11 31 is_stmt 1
  11:src/../h/join.hpp ****         for (uint64 j = 0; j < 10000; j++) {
  96              		.loc 1 11 39 is_stmt 0
  97 006c 13060000 		li	a2,0
  98 0070 9305A000 		li	a1,10
  99 0074 1B050900 		sext.w	a0,s2
 100 0078 97000000 		call	_Z8printIntiii@plt
 100      E7800000 
 101              	.LVL10:
  11:src/../h/join.hpp ****         for (uint64 j = 0; j < 10000; j++) {
 102              		.loc 1 11 44 is_stmt 1
  11:src/../h/join.hpp ****         for (uint64 j = 0; j < 10000; j++) {
 103              		.loc 1 11 55 is_stmt 0
 104 0080 17050000 		lla	a0,.LC1
 104      13050500 
 105 0088 97000000 		call	_Z11printStringPKc@plt
 105      E7800000 
 106              	.LVL11:
  12:src/../h/join.hpp ****             for (uint64 k = 0; k < 30000; k++) { /* busy wait */ }
 107              		.loc 1 12 9 is_stmt 1
 108              	.LBB8:
  12:src/../h/join.hpp ****             for (uint64 k = 0; k < 30000; k++) { /* busy wait */ }
 109              		.loc 1 12 21 is_stmt 0
 110 0090 93040000 		li	s1,0
 111 0094 6FF09FF9 		j	.L6
 112              	.LVL12:
 113              	.L2:
 114              	.LBE8:
 115              	.LBE9:
 116              	.LBE2:
  15:src/../h/join.hpp ****         }
  16:src/../h/join.hpp ****     }
  17:src/../h/join.hpp ****     printString("A finished!\n");
 117              		.loc 1 17 5 is_stmt 1
 118              		.loc 1 17 16 is_stmt 0
 119 0098 17050000 		lla	a0,.LC2
 119      13050500 
 120 00a0 97000000 		call	_Z11printStringPKc@plt
 120      E7800000 
 121              	.LVL13:
  18:src/../h/join.hpp **** 
  19:src/../h/join.hpp **** 
  20:src/../h/join.hpp **** }
 122              		.loc 1 20 1
 123 00a8 83308101 		ld	ra,24(sp)
 124              		.cfi_restore 1
GAS LISTING /tmp/ccCvb6Lv.s 			page 4


 125 00ac 03340101 		ld	s0,16(sp)
 126              		.cfi_restore 8
 127              		.cfi_def_cfa 2, 32
 128 00b0 83348100 		ld	s1,8(sp)
 129              		.cfi_restore 9
 130 00b4 03390100 		ld	s2,0(sp)
 131              		.cfi_restore 18
 132              	.LVL14:
 133 00b8 13010102 		addi	sp,sp,32
 134              		.cfi_def_cfa_offset 0
 135 00bc 67800000 		jr	ra
 136              		.cfi_endproc
 137              	.LFE35:
 139              		.section	.rodata.str1.8
 140 001d 000000   		.align	3
 141              	.LC3:
 142 0020 433A2069 		.string	"C: i="
 142      3D00
 143 0026 0000     		.align	3
 144              	.LC4:
 145 0028 63206669 		.string	"c finished!\n"
 145      6E697368 
 145      6564210A 
 145      00
 146              		.text
 147              		.align	2
 148              		.globl	_Z11workerBodyCPv
 150              	_Z11workerBodyCPv:
 151              	.LFB37:
  21:src/../h/join.hpp **** void workerBodyB(void* arg) {
  22:src/../h/join.hpp **** 
  23:src/../h/join.hpp ****     join(threads[0]);
  24:src/../h/join.hpp **** 
  25:src/../h/join.hpp ****     join(threads[2]);
  26:src/../h/join.hpp ****     __asm__ volatile("csrw sstatus,%0"::"r"(1<<8));
  27:src/../h/join.hpp **** 
  28:src/../h/join.hpp ****     for (uint64 i = 0; i < 10; i++) {
  29:src/../h/join.hpp ****         printString("B: i="); printInt(i); printString("\n");
  30:src/../h/join.hpp ****         for (uint64 j = 0; j < 10000; j++) {
  31:src/../h/join.hpp ****             for (uint64 k = 0; k < 30000; k++) { /* busy wait */ }
  32:src/../h/join.hpp ****             //thread_dispatch();
  33:src/../h/join.hpp ****         }
  34:src/../h/join.hpp ****     }
  35:src/../h/join.hpp ****     printString("b finished!\n");
  36:src/../h/join.hpp **** 
  37:src/../h/join.hpp **** }
  38:src/../h/join.hpp **** void workerBodyC(void* arg) {
 152              		.loc 1 38 29 is_stmt 1
 153              		.cfi_startproc
 154              	.LVL15:
 155 00c0 130101FE 		addi	sp,sp,-32
 156              		.cfi_def_cfa_offset 32
 157 00c4 233C1100 		sd	ra,24(sp)
 158 00c8 23388100 		sd	s0,16(sp)
 159 00cc 23349100 		sd	s1,8(sp)
 160 00d0 23302101 		sd	s2,0(sp)
 161              		.cfi_offset 1, -8
GAS LISTING /tmp/ccCvb6Lv.s 			page 5


 162              		.cfi_offset 8, -16
 163              		.cfi_offset 9, -24
 164              		.cfi_offset 18, -32
 165 00d4 13040102 		addi	s0,sp,32
 166              		.cfi_def_cfa 8, 0
  39:src/../h/join.hpp ****     for (uint64 i = 0; i < 10; i++) {
 167              		.loc 1 39 5
 168              	.LVL16:
 169              	.LBB10:
 170              		.loc 1 39 17 is_stmt 0
 171 00d8 13090000 		li	s2,0
 172 00dc 6F008003 		j	.L15
 173              	.LVL17:
 174              	.L12:
 175              	.LBB11:
 176              	.LBB12:
 177              	.LBB13:
  40:src/../h/join.hpp ****         printString("C: i="); printInt(i); printString("\n");
  41:src/../h/join.hpp ****         for (uint64 j = 0; j < 10000; j++) {
  42:src/../h/join.hpp ****             for (uint64 k = 0; k < 30000; k++) { /* busy wait */ }
  43:src/../h/join.hpp ****              thread_dispatch();
 178              		.loc 1 43 14 is_stmt 1 discriminator 2
 179              		.loc 1 43 29 is_stmt 0 discriminator 2
 180 00e0 97000000 		call	_Z15thread_dispatchv@plt
 180      E7800000 
 181              	.LVL18:
 182              	.LBE13:
  41:src/../h/join.hpp ****             for (uint64 k = 0; k < 30000; k++) { /* busy wait */ }
 183              		.loc 1 41 9 is_stmt 1 discriminator 2
 184 00e8 93841400 		addi	s1,s1,1
 185              	.LVL19:
 186              	.L14:
  41:src/../h/join.hpp ****             for (uint64 k = 0; k < 30000; k++) { /* busy wait */ }
 187              		.loc 1 41 30 discriminator 1
 188 00ec B7270000 		li	a5,8192
 189 00f0 9387F770 		addi	a5,a5,1807
 190 00f4 63EE9700 		bgtu	s1,a5,.L11
 191              	.LBB15:
 192              	.LBB14:
  42:src/../h/join.hpp ****              thread_dispatch();
 193              		.loc 1 42 25 is_stmt 0
 194 00f8 13070000 		li	a4,0
 195              	.L13:
 196              	.LVL20:
  42:src/../h/join.hpp ****              thread_dispatch();
 197              		.loc 1 42 34 is_stmt 1 discriminator 3
 198 00fc B7770000 		li	a5,28672
 199 0100 9387F752 		addi	a5,a5,1327
 200 0104 E3EEE7FC 		bgtu	a4,a5,.L12
  42:src/../h/join.hpp ****              thread_dispatch();
 201              		.loc 1 42 13 discriminator 2
 202 0108 13071700 		addi	a4,a4,1
 203              	.LVL21:
 204 010c 6FF01FFF 		j	.L13
 205              	.LVL22:
 206              	.L11:
 207              	.LBE14:
GAS LISTING /tmp/ccCvb6Lv.s 			page 6


 208              	.LBE15:
 209              	.LBE12:
 210              	.LBE11:
  39:src/../h/join.hpp ****         printString("C: i="); printInt(i); printString("\n");
 211              		.loc 1 39 5 discriminator 2
 212 0110 13091900 		addi	s2,s2,1
 213              	.LVL23:
 214              	.L15:
  39:src/../h/join.hpp ****         printString("C: i="); printInt(i); printString("\n");
 215              		.loc 1 39 26 discriminator 1
 216 0114 93079000 		li	a5,9
 217 0118 63E02705 		bgtu	s2,a5,.L10
 218              	.LBB17:
  40:src/../h/join.hpp ****         for (uint64 j = 0; j < 10000; j++) {
 219              		.loc 1 40 9
  40:src/../h/join.hpp ****         for (uint64 j = 0; j < 10000; j++) {
 220              		.loc 1 40 20 is_stmt 0
 221 011c 17050000 		lla	a0,.LC3
 221      13050500 
 222 0124 97000000 		call	_Z11printStringPKc@plt
 222      E7800000 
 223              	.LVL24:
  40:src/../h/join.hpp ****         for (uint64 j = 0; j < 10000; j++) {
 224              		.loc 1 40 31 is_stmt 1
  40:src/../h/join.hpp ****         for (uint64 j = 0; j < 10000; j++) {
 225              		.loc 1 40 39 is_stmt 0
 226 012c 13060000 		li	a2,0
 227 0130 9305A000 		li	a1,10
 228 0134 1B050900 		sext.w	a0,s2
 229 0138 97000000 		call	_Z8printIntiii@plt
 229      E7800000 
 230              	.LVL25:
  40:src/../h/join.hpp ****         for (uint64 j = 0; j < 10000; j++) {
 231              		.loc 1 40 44 is_stmt 1
  40:src/../h/join.hpp ****         for (uint64 j = 0; j < 10000; j++) {
 232              		.loc 1 40 55 is_stmt 0
 233 0140 17050000 		lla	a0,.LC1
 233      13050500 
 234 0148 97000000 		call	_Z11printStringPKc@plt
 234      E7800000 
 235              	.LVL26:
  41:src/../h/join.hpp ****             for (uint64 k = 0; k < 30000; k++) { /* busy wait */ }
 236              		.loc 1 41 9 is_stmt 1
 237              	.LBB16:
  41:src/../h/join.hpp ****             for (uint64 k = 0; k < 30000; k++) { /* busy wait */ }
 238              		.loc 1 41 21 is_stmt 0
 239 0150 93040000 		li	s1,0
 240 0154 6FF09FF9 		j	.L14
 241              	.LVL27:
 242              	.L10:
 243              	.LBE16:
 244              	.LBE17:
 245              	.LBE10:
  44:src/../h/join.hpp ****         }
  45:src/../h/join.hpp ****     }
  46:src/../h/join.hpp ****     printString("c finished!\n");
 246              		.loc 1 46 5 is_stmt 1
GAS LISTING /tmp/ccCvb6Lv.s 			page 7


 247              		.loc 1 46 16 is_stmt 0
 248 0158 17050000 		lla	a0,.LC4
 248      13050500 
 249 0160 97000000 		call	_Z11printStringPKc@plt
 249      E7800000 
 250              	.LVL28:
  47:src/../h/join.hpp **** 
  48:src/../h/join.hpp **** }
 251              		.loc 1 48 1
 252 0168 83308101 		ld	ra,24(sp)
 253              		.cfi_restore 1
 254 016c 03340101 		ld	s0,16(sp)
 255              		.cfi_restore 8
 256              		.cfi_def_cfa 2, 32
 257 0170 83348100 		ld	s1,8(sp)
 258              		.cfi_restore 9
 259 0174 03390100 		ld	s2,0(sp)
 260              		.cfi_restore 18
 261              	.LVL29:
 262 0178 13010102 		addi	sp,sp,32
 263              		.cfi_def_cfa_offset 0
 264 017c 67800000 		jr	ra
 265              		.cfi_endproc
 266              	.LFE37:
 268              		.section	.rodata.str1.8
 269 0035 000000   		.align	3
 270              	.LC5:
 271 0038 423A2069 		.string	"B: i="
 271      3D00
 272 003e 0000     		.align	3
 273              	.LC6:
 274 0040 62206669 		.string	"b finished!\n"
 274      6E697368 
 274      6564210A 
 274      00
 275              		.text
 276              		.align	2
 277              		.globl	_Z11workerBodyBPv
 279              	_Z11workerBodyBPv:
 280              	.LFB36:
  21:src/../h/join.hpp **** 
 281              		.loc 1 21 29 is_stmt 1
 282              		.cfi_startproc
 283              	.LVL30:
 284 0180 130101FE 		addi	sp,sp,-32
 285              		.cfi_def_cfa_offset 32
 286 0184 233C1100 		sd	ra,24(sp)
 287 0188 23388100 		sd	s0,16(sp)
 288 018c 23349100 		sd	s1,8(sp)
 289              		.cfi_offset 1, -8
 290              		.cfi_offset 8, -16
 291              		.cfi_offset 9, -24
 292 0190 13040102 		addi	s0,sp,32
 293              		.cfi_def_cfa 8, 0
  23:src/../h/join.hpp **** 
 294              		.loc 1 23 5
  23:src/../h/join.hpp **** 
GAS LISTING /tmp/ccCvb6Lv.s 			page 8


 295              		.loc 1 23 9 is_stmt 0
 296 0194 97040000 		lla	s1,.LANCHOR0
 296      93840400 
 297 019c 03B50400 		ld	a0,0(s1)
 298              	.LVL31:
 299 01a0 97000000 		call	_Z4joinP3TCB@plt
 299      E7800000 
 300              	.LVL32:
  25:src/../h/join.hpp ****     __asm__ volatile("csrw sstatus,%0"::"r"(1<<8));
 301              		.loc 1 25 5 is_stmt 1
  25:src/../h/join.hpp ****     __asm__ volatile("csrw sstatus,%0"::"r"(1<<8));
 302              		.loc 1 25 9 is_stmt 0
 303 01a8 03B50401 		ld	a0,16(s1)
 304 01ac 97000000 		call	_Z4joinP3TCB@plt
 304      E7800000 
 305              	.LVL33:
  26:src/../h/join.hpp **** 
 306              		.loc 1 26 5 is_stmt 1
  26:src/../h/join.hpp **** 
 307              		.loc 1 26 51 is_stmt 0
 308 01b4 93070010 		li	a5,256
 309              	#APP
 310              	# 26 "src/../h/join.hpp" 1
  28:src/../h/join.hpp ****         printString("B: i="); printInt(i); printString("\n");
 311              		csrw sstatus,a5
 312              	# 0 "" 2
 313              		.loc 1 28 5 is_stmt 1
 314              	.LVL34:
 315              	#NO_APP
 316              	.LBB18:
  28:src/../h/join.hpp ****         printString("B: i="); printInt(i); printString("\n");
 317              		.loc 1 28 17 is_stmt 0
 318 01bc 93040000 		li	s1,0
 319 01c0 6F000003 		j	.L23
 320              	.LVL35:
 321              	.L20:
 322              	.LBB19:
 323              	.LBB20:
  30:src/../h/join.hpp ****             for (uint64 k = 0; k < 30000; k++) { /* busy wait */ }
 324              		.loc 1 30 9 is_stmt 1 discriminator 2
 325 01c4 93861600 		addi	a3,a3,1
 326              	.LVL36:
 327              	.L22:
  30:src/../h/join.hpp ****             for (uint64 k = 0; k < 30000; k++) { /* busy wait */ }
 328              		.loc 1 30 30 discriminator 1
 329 01c8 B7270000 		li	a5,8192
 330 01cc 9387F770 		addi	a5,a5,1807
 331 01d0 63EED700 		bgtu	a3,a5,.L19
 332              	.LBB21:
  31:src/../h/join.hpp ****             //thread_dispatch();
 333              		.loc 1 31 25 is_stmt 0
 334 01d4 13070000 		li	a4,0
 335              	.L21:
 336              	.LVL37:
  31:src/../h/join.hpp ****             //thread_dispatch();
 337              		.loc 1 31 34 is_stmt 1 discriminator 3
 338 01d8 B7770000 		li	a5,28672
GAS LISTING /tmp/ccCvb6Lv.s 			page 9


 339 01dc 9387F752 		addi	a5,a5,1327
 340 01e0 E3E2E7FE 		bgtu	a4,a5,.L20
  31:src/../h/join.hpp ****             //thread_dispatch();
 341              		.loc 1 31 13 discriminator 2
 342 01e4 13071700 		addi	a4,a4,1
 343              	.LVL38:
 344 01e8 6FF01FFF 		j	.L21
 345              	.LVL39:
 346              	.L19:
 347              	.LBE21:
 348              	.LBE20:
 349              	.LBE19:
  28:src/../h/join.hpp ****         printString("B: i="); printInt(i); printString("\n");
 350              		.loc 1 28 5 discriminator 2
 351 01ec 93841400 		addi	s1,s1,1
 352              	.LVL40:
 353              	.L23:
  28:src/../h/join.hpp ****         printString("B: i="); printInt(i); printString("\n");
 354              		.loc 1 28 26 discriminator 1
 355 01f0 93079000 		li	a5,9
 356 01f4 63E09704 		bgtu	s1,a5,.L18
 357              	.LBB23:
  29:src/../h/join.hpp ****         for (uint64 j = 0; j < 10000; j++) {
 358              		.loc 1 29 9
  29:src/../h/join.hpp ****         for (uint64 j = 0; j < 10000; j++) {
 359              		.loc 1 29 20 is_stmt 0
 360 01f8 17050000 		lla	a0,.LC5
 360      13050500 
 361 0200 97000000 		call	_Z11printStringPKc@plt
 361      E7800000 
 362              	.LVL41:
  29:src/../h/join.hpp ****         for (uint64 j = 0; j < 10000; j++) {
 363              		.loc 1 29 31 is_stmt 1
  29:src/../h/join.hpp ****         for (uint64 j = 0; j < 10000; j++) {
 364              		.loc 1 29 39 is_stmt 0
 365 0208 13060000 		li	a2,0
 366 020c 9305A000 		li	a1,10
 367 0210 1B850400 		sext.w	a0,s1
 368 0214 97000000 		call	_Z8printIntiii@plt
 368      E7800000 
 369              	.LVL42:
  29:src/../h/join.hpp ****         for (uint64 j = 0; j < 10000; j++) {
 370              		.loc 1 29 44 is_stmt 1
  29:src/../h/join.hpp ****         for (uint64 j = 0; j < 10000; j++) {
 371              		.loc 1 29 55 is_stmt 0
 372 021c 17050000 		lla	a0,.LC1
 372      13050500 
 373 0224 97000000 		call	_Z11printStringPKc@plt
 373      E7800000 
 374              	.LVL43:
  30:src/../h/join.hpp ****             for (uint64 k = 0; k < 30000; k++) { /* busy wait */ }
 375              		.loc 1 30 9 is_stmt 1
 376              	.LBB22:
  30:src/../h/join.hpp ****             for (uint64 k = 0; k < 30000; k++) { /* busy wait */ }
 377              		.loc 1 30 21 is_stmt 0
 378 022c 93060000 		li	a3,0
 379 0230 6FF09FF9 		j	.L22
GAS LISTING /tmp/ccCvb6Lv.s 			page 10


 380              	.LVL44:
 381              	.L18:
 382              	.LBE22:
 383              	.LBE23:
 384              	.LBE18:
  35:src/../h/join.hpp **** 
 385              		.loc 1 35 5 is_stmt 1
  35:src/../h/join.hpp **** 
 386              		.loc 1 35 16 is_stmt 0
 387 0234 17050000 		lla	a0,.LC6
 387      13050500 
 388 023c 97000000 		call	_Z11printStringPKc@plt
 388      E7800000 
 389              	.LVL45:
  37:src/../h/join.hpp **** void workerBodyC(void* arg) {
 390              		.loc 1 37 1
 391 0244 83308101 		ld	ra,24(sp)
 392              		.cfi_restore 1
 393 0248 03340101 		ld	s0,16(sp)
 394              		.cfi_restore 8
 395              		.cfi_def_cfa 2, 32
 396 024c 83348100 		ld	s1,8(sp)
 397              		.cfi_restore 9
 398              	.LVL46:
 399 0250 13010102 		addi	sp,sp,32
 400              		.cfi_def_cfa_offset 0
 401 0254 67800000 		jr	ra
 402              		.cfi_endproc
 403              	.LFE36:
 405              		.section	.rodata.str1.8
 406 004d 000000   		.align	3
 407              	.LC7:
 408 0050 54687265 		.string	"ThreadA created\n"
 408      61644120 
 408      63726561 
 408      7465640A 
 408      00
 409 0061 00000000 		.align	3
 409      000000
 410              	.LC8:
 411 0068 54687265 		.string	"ThreadB created\n"
 411      61644220 
 411      63726561 
 411      7465640A 
 411      00
 412 0079 00000000 		.align	3
 412      000000
 413              	.LC9:
 414 0080 54687265 		.string	"ThreadC created\n"
 414      61644320 
 414      63726561 
 414      7465640A 
 414      00
 415              		.text
 416              		.align	2
 417              		.globl	_Z8testJOINv
 419              	_Z8testJOINv:
GAS LISTING /tmp/ccCvb6Lv.s 			page 11


 420              	.LFB38:
  49:src/../h/join.hpp **** 
  50:src/../h/join.hpp **** void testJOIN() {
 421              		.loc 1 50 17 is_stmt 1
 422              		.cfi_startproc
 423 0258 130101FE 		addi	sp,sp,-32
 424              		.cfi_def_cfa_offset 32
 425 025c 233C1100 		sd	ra,24(sp)
 426 0260 23388100 		sd	s0,16(sp)
 427 0264 23349100 		sd	s1,8(sp)
 428              		.cfi_offset 1, -8
 429              		.cfi_offset 8, -16
 430              		.cfi_offset 9, -24
 431 0268 13040102 		addi	s0,sp,32
 432              		.cfi_def_cfa 8, 0
  51:src/../h/join.hpp **** 
  52:src/../h/join.hpp ****     thread_create(&threads[0], workerBodyA, nullptr);
 433              		.loc 1 52 5
 434              		.loc 1 52 18 is_stmt 0
 435 026c 97040000 		lla	s1,.LANCHOR0
 435      93840400 
 436 0274 13060000 		li	a2,0
 437 0278 97050000 		lla	a1,_Z11workerBodyAPv
 437      93850500 
 438 0280 13850400 		mv	a0,s1
 439 0284 97000000 		call	_Z13thread_createPP3TCBPFvPvES2_@plt
 439      E7800000 
 440              	.LVL47:
  53:src/../h/join.hpp ****     printString("ThreadA created\n");
 441              		.loc 1 53 5 is_stmt 1
 442              		.loc 1 53 16 is_stmt 0
 443 028c 17050000 		lla	a0,.LC7
 443      13050500 
 444 0294 97000000 		call	_Z11printStringPKc@plt
 444      E7800000 
 445              	.LVL48:
  54:src/../h/join.hpp **** 
  55:src/../h/join.hpp ****     thread_create(&threads[1], workerBodyB, nullptr);
 446              		.loc 1 55 5 is_stmt 1
 447              		.loc 1 55 18 is_stmt 0
 448 029c 13060000 		li	a2,0
 449 02a0 97050000 		lla	a1,_Z11workerBodyBPv
 449      93850500 
 450 02a8 17050000 		lla	a0,.LANCHOR0+8
 450      13050500 
 451 02b0 97000000 		call	_Z13thread_createPP3TCBPFvPvES2_@plt
 451      E7800000 
 452              	.LVL49:
  56:src/../h/join.hpp ****     printString("ThreadB created\n");
 453              		.loc 1 56 5 is_stmt 1
 454              		.loc 1 56 16 is_stmt 0
 455 02b8 17050000 		lla	a0,.LC8
 455      13050500 
 456 02c0 97000000 		call	_Z11printStringPKc@plt
 456      E7800000 
 457              	.LVL50:
  57:src/../h/join.hpp **** 
GAS LISTING /tmp/ccCvb6Lv.s 			page 12


  58:src/../h/join.hpp ****     thread_create(&threads[2], workerBodyC, nullptr);
 458              		.loc 1 58 5 is_stmt 1
 459              		.loc 1 58 18 is_stmt 0
 460 02c8 13060000 		li	a2,0
 461 02cc 97050000 		lla	a1,_Z11workerBodyCPv
 461      93850500 
 462 02d4 17050000 		lla	a0,.LANCHOR0+16
 462      13050500 
 463 02dc 97000000 		call	_Z13thread_createPP3TCBPFvPvES2_@plt
 463      E7800000 
 464              	.LVL51:
  59:src/../h/join.hpp ****     printString("ThreadC created\n");
 465              		.loc 1 59 5 is_stmt 1
 466              		.loc 1 59 16 is_stmt 0
 467 02e4 17050000 		lla	a0,.LC9
 467      13050500 
 468 02ec 97000000 		call	_Z11printStringPKc@plt
 468      E7800000 
 469              	.LVL52:
  60:src/../h/join.hpp **** 
  61:src/../h/join.hpp **** 
  62:src/../h/join.hpp ****     join(threads[0]);
 470              		.loc 1 62 5 is_stmt 1
 471              		.loc 1 62 9 is_stmt 0
 472 02f4 03B50400 		ld	a0,0(s1)
 473 02f8 97000000 		call	_Z4joinP3TCB@plt
 473      E7800000 
 474              	.LVL53:
  63:src/../h/join.hpp ****     join(threads[2]);
 475              		.loc 1 63 5 is_stmt 1
 476              		.loc 1 63 9 is_stmt 0
 477 0300 03B50401 		ld	a0,16(s1)
 478 0304 97000000 		call	_Z4joinP3TCB@plt
 478      E7800000 
 479              	.LVL54:
  64:src/../h/join.hpp **** 
  65:src/../h/join.hpp **** 
  66:src/../h/join.hpp **** }
 480              		.loc 1 66 1
 481 030c 83308101 		ld	ra,24(sp)
 482              		.cfi_restore 1
 483 0310 03340101 		ld	s0,16(sp)
 484              		.cfi_restore 8
 485              		.cfi_def_cfa 2, 32
 486 0314 83348100 		ld	s1,8(sp)
 487              		.cfi_restore 9
 488 0318 13010102 		addi	sp,sp,32
 489              		.cfi_def_cfa_offset 0
 490 031c 67800000 		jr	ra
 491              		.cfi_endproc
 492              	.LFE38:
 494              		.align	2
 495              		.globl	_Z8userMainv
 497              	_Z8userMainv:
 498              	.LFB39:
 499              		.file 2 "src/userMain.cpp"
   1:src/userMain.cpp **** 
GAS LISTING /tmp/ccCvb6Lv.s 			page 13


   2:src/userMain.cpp **** //#include "../h/Threads_C_API_test.hpp" // zadatak 2, niti C API i sinhrona promena konteksta
   3:src/userMain.cpp **** //#include "../h/Threads_CPP_API_test.hpp" // zadatak 2., niti CPP API i sinhrona promena konteksta
   4:src/userMain.cpp **** 
   5:src/userMain.cpp **** //#include "../h/ConsumerProducer_C_API_test.hpp" // zadatak 3., kompletan C API sa semaforima, sin
   6:src/userMain.cpp **** 
   7:src/userMain.cpp **** //#include "../h/ConsumerProducer_CPP_Sync_API_test.hpp" // zadatak 3., kompletan CPP API sa semafo
   8:src/userMain.cpp **** 
   9:src/userMain.cpp **** //#include "../h/ThreadSleep_C_API_test.hpp" // thread_sleep test C API
  10:src/userMain.cpp **** //#include "../h/ConsumerProducer_CPP_API_test.hpp" // zadatak 4. CPP API i asinhrona promena konte
  11:src/userMain.cpp **** //#include "../h/testID.hpp"
  12:src/userMain.cpp **** //#include "../h/testKIll.hpp"
  13:src/userMain.cpp **** #include "../h/join.hpp"
  14:src/userMain.cpp **** void userMain() {
 500              		.loc 2 14 17 is_stmt 1
 501              		.cfi_startproc
 502 0320 130101FF 		addi	sp,sp,-16
 503              		.cfi_def_cfa_offset 16
 504 0324 23341100 		sd	ra,8(sp)
 505 0328 23308100 		sd	s0,0(sp)
 506              		.cfi_offset 1, -8
 507              		.cfi_offset 8, -16
 508 032c 13040101 		addi	s0,sp,16
 509              		.cfi_def_cfa 8, 0
  15:src/userMain.cpp ****     //__asm__ volatile("csrw sstatus,%0"::"r"(1<<8));
  16:src/userMain.cpp **** //Threads_C_API_test(); // zadatak 2., niti C API i sinhrona promena konteksta
  17:src/userMain.cpp **** //Threads_CPP_API_test(); // zadatak 2., niti CPP API i sinhrona promena konteksta
  18:src/userMain.cpp **** //testID();
  19:src/userMain.cpp **** //testKill();
  20:src/userMain.cpp **** testJOIN();
 510              		.loc 2 20 1
 511              		.loc 2 20 9 is_stmt 0
 512 0330 97000000 		call	_Z8testJOINv
 512      E7800000 
 513              	.LVL55:
  21:src/userMain.cpp ****  //producerConsumer_C_API(); // zadatak 3., kompletan C API sa semaforima, sinhrona promena konteks
  22:src/userMain.cpp **** //producerConsumer_CPP_Sync_API(); // zadatak 3., kompletan CPP API sa semaforima, sinhrona promena
  23:src/userMain.cpp **** 
  24:src/userMain.cpp ****     //testSleeping(); // thread_sleep test C API
  25:src/userMain.cpp ****     //ConsumerProducerCPP::testConsumerProducer(); // zadatak 4. CPP API i asinhrona promena kontek
  26:src/userMain.cpp **** 
  27:src/userMain.cpp **** }
 514              		.loc 2 27 1
 515 0338 83308100 		ld	ra,8(sp)
 516              		.cfi_restore 1
 517 033c 03340100 		ld	s0,0(sp)
 518              		.cfi_restore 8
 519              		.cfi_def_cfa 2, 16
 520 0340 13010101 		addi	sp,sp,16
 521              		.cfi_def_cfa_offset 0
 522 0344 67800000 		jr	ra
 523              		.cfi_endproc
 524              	.LFE39:
 526              		.globl	threads
 527              		.bss
 528              		.align	3
 529              		.set	.LANCHOR0,. + 0
 532              	threads:
GAS LISTING /tmp/ccCvb6Lv.s 			page 14


 533 0000 00000000 		.zero	24
 533      00000000 
 533      00000000 
 533      00000000 
 533      00000000 
 534              		.text
 535              	.Letext0:
 536              		.file 3 "src/../h/../h/../h/../lib/hw.h"
 537              		.file 4 "src/../h/../h/../h/../h/syscall_cpp.hpp"
 538              		.file 5 "src/../h/../h/../h/tcb.hpp"
 539              		.file 6 "src/../h/../h/../h/queue.hpp"
 540              		.file 7 "src/../h/../h/syscall_c.hpp"
 541              		.file 8 "src/../h/printing.hpp"
GAS LISTING /tmp/ccCvb6Lv.s 			page 15


DEFINED SYMBOLS
                            *ABS*:0000000000000000 userMain.cpp
     /tmp/ccCvb6Lv.s:20     .text:0000000000000000 _Z11workerBodyAPv
     /tmp/ccCvb6Lv.s:24     .text:0000000000000000 .L0 
     /tmp/ccCvb6Lv.s:26     .text:0000000000000000 .L0 
     /tmp/ccCvb6Lv.s:27     .text:0000000000000004 .L0 
     /tmp/ccCvb6Lv.s:32     .text:0000000000000014 .L0 
     /tmp/ccCvb6Lv.s:33     .text:0000000000000014 .L0 
     /tmp/ccCvb6Lv.s:34     .text:0000000000000014 .L0 
     /tmp/ccCvb6Lv.s:35     .text:0000000000000014 .L0 
     /tmp/ccCvb6Lv.s:37     .text:0000000000000018 .L0 
     /tmp/ccCvb6Lv.s:41     .text:0000000000000018 .L0 
     /tmp/ccCvb6Lv.s:42     .text:0000000000000018 .L0 
     /tmp/ccCvb6Lv.s:50     .text:0000000000000020 .L0 
     /tmp/ccCvb6Lv.s:51     .text:0000000000000020 .L0 
     /tmp/ccCvb6Lv.s:55     .text:0000000000000028 .L0 
     /tmp/ccCvb6Lv.s:59     .text:000000000000002c .L0 
     /tmp/ccCvb6Lv.s:65     .text:0000000000000038 .L0 
     /tmp/ccCvb6Lv.s:69     .text:000000000000003c .L0 
     /tmp/ccCvb6Lv.s:73     .text:0000000000000048 .L0 
     /tmp/ccCvb6Lv.s:83     .text:0000000000000050 .L0 
     /tmp/ccCvb6Lv.s:87     .text:0000000000000054 .L0 
     /tmp/ccCvb6Lv.s:91     .text:000000000000005c .L0 
     /tmp/ccCvb6Lv.s:92     .text:000000000000005c .L0 
     /tmp/ccCvb6Lv.s:96     .text:000000000000006c .L0 
     /tmp/ccCvb6Lv.s:97     .text:000000000000006c .L0 
     /tmp/ccCvb6Lv.s:103    .text:0000000000000080 .L0 
     /tmp/ccCvb6Lv.s:104    .text:0000000000000080 .L0 
     /tmp/ccCvb6Lv.s:109    .text:0000000000000090 .L0 
     /tmp/ccCvb6Lv.s:110    .text:0000000000000090 .L0 
     /tmp/ccCvb6Lv.s:118    .text:0000000000000098 .L0 
     /tmp/ccCvb6Lv.s:119    .text:0000000000000098 .L0 
     /tmp/ccCvb6Lv.s:123    .text:00000000000000a8 .L0 
     /tmp/ccCvb6Lv.s:124    .text:00000000000000ac .L0 
     /tmp/ccCvb6Lv.s:126    .text:00000000000000b0 .L0 
     /tmp/ccCvb6Lv.s:127    .text:00000000000000b0 .L0 
     /tmp/ccCvb6Lv.s:129    .text:00000000000000b4 .L0 
     /tmp/ccCvb6Lv.s:131    .text:00000000000000b8 .L0 
     /tmp/ccCvb6Lv.s:134    .text:00000000000000bc .L0 
     /tmp/ccCvb6Lv.s:136    .text:00000000000000c0 .L0 
     /tmp/ccCvb6Lv.s:150    .text:00000000000000c0 _Z11workerBodyCPv
     /tmp/ccCvb6Lv.s:153    .text:00000000000000c0 .L0 
     /tmp/ccCvb6Lv.s:155    .text:00000000000000c0 .L0 
     /tmp/ccCvb6Lv.s:156    .text:00000000000000c4 .L0 
     /tmp/ccCvb6Lv.s:161    .text:00000000000000d4 .L0 
     /tmp/ccCvb6Lv.s:162    .text:00000000000000d4 .L0 
     /tmp/ccCvb6Lv.s:163    .text:00000000000000d4 .L0 
     /tmp/ccCvb6Lv.s:164    .text:00000000000000d4 .L0 
     /tmp/ccCvb6Lv.s:166    .text:00000000000000d8 .L0 
     /tmp/ccCvb6Lv.s:170    .text:00000000000000d8 .L0 
     /tmp/ccCvb6Lv.s:171    .text:00000000000000d8 .L0 
     /tmp/ccCvb6Lv.s:179    .text:00000000000000e0 .L0 
     /tmp/ccCvb6Lv.s:180    .text:00000000000000e0 .L0 
     /tmp/ccCvb6Lv.s:184    .text:00000000000000e8 .L0 
     /tmp/ccCvb6Lv.s:188    .text:00000000000000ec .L0 
     /tmp/ccCvb6Lv.s:194    .text:00000000000000f8 .L0 
     /tmp/ccCvb6Lv.s:198    .text:00000000000000fc .L0 
GAS LISTING /tmp/ccCvb6Lv.s 			page 16


     /tmp/ccCvb6Lv.s:202    .text:0000000000000108 .L0 
     /tmp/ccCvb6Lv.s:212    .text:0000000000000110 .L0 
     /tmp/ccCvb6Lv.s:216    .text:0000000000000114 .L0 
     /tmp/ccCvb6Lv.s:220    .text:000000000000011c .L0 
     /tmp/ccCvb6Lv.s:221    .text:000000000000011c .L0 
     /tmp/ccCvb6Lv.s:225    .text:000000000000012c .L0 
     /tmp/ccCvb6Lv.s:226    .text:000000000000012c .L0 
     /tmp/ccCvb6Lv.s:232    .text:0000000000000140 .L0 
     /tmp/ccCvb6Lv.s:233    .text:0000000000000140 .L0 
     /tmp/ccCvb6Lv.s:238    .text:0000000000000150 .L0 
     /tmp/ccCvb6Lv.s:239    .text:0000000000000150 .L0 
     /tmp/ccCvb6Lv.s:247    .text:0000000000000158 .L0 
     /tmp/ccCvb6Lv.s:248    .text:0000000000000158 .L0 
     /tmp/ccCvb6Lv.s:252    .text:0000000000000168 .L0 
     /tmp/ccCvb6Lv.s:253    .text:000000000000016c .L0 
     /tmp/ccCvb6Lv.s:255    .text:0000000000000170 .L0 
     /tmp/ccCvb6Lv.s:256    .text:0000000000000170 .L0 
     /tmp/ccCvb6Lv.s:258    .text:0000000000000174 .L0 
     /tmp/ccCvb6Lv.s:260    .text:0000000000000178 .L0 
     /tmp/ccCvb6Lv.s:263    .text:000000000000017c .L0 
     /tmp/ccCvb6Lv.s:265    .text:0000000000000180 .L0 
     /tmp/ccCvb6Lv.s:279    .text:0000000000000180 _Z11workerBodyBPv
     /tmp/ccCvb6Lv.s:282    .text:0000000000000180 .L0 
     /tmp/ccCvb6Lv.s:284    .text:0000000000000180 .L0 
     /tmp/ccCvb6Lv.s:285    .text:0000000000000184 .L0 
     /tmp/ccCvb6Lv.s:289    .text:0000000000000190 .L0 
     /tmp/ccCvb6Lv.s:290    .text:0000000000000190 .L0 
     /tmp/ccCvb6Lv.s:291    .text:0000000000000190 .L0 
     /tmp/ccCvb6Lv.s:293    .text:0000000000000194 .L0 
     /tmp/ccCvb6Lv.s:295    .text:0000000000000194 .L0 
     /tmp/ccCvb6Lv.s:296    .text:0000000000000194 .L0 
     /tmp/ccCvb6Lv.s:302    .text:00000000000001a8 .L0 
     /tmp/ccCvb6Lv.s:303    .text:00000000000001a8 .L0 
     /tmp/ccCvb6Lv.s:307    .text:00000000000001b4 .L0 
     /tmp/ccCvb6Lv.s:308    .text:00000000000001b4 .L0 
     /tmp/ccCvb6Lv.s:317    .text:00000000000001bc .L0 
     /tmp/ccCvb6Lv.s:318    .text:00000000000001bc .L0 
     /tmp/ccCvb6Lv.s:325    .text:00000000000001c4 .L0 
     /tmp/ccCvb6Lv.s:329    .text:00000000000001c8 .L0 
     /tmp/ccCvb6Lv.s:334    .text:00000000000001d4 .L0 
     /tmp/ccCvb6Lv.s:338    .text:00000000000001d8 .L0 
     /tmp/ccCvb6Lv.s:342    .text:00000000000001e4 .L0 
     /tmp/ccCvb6Lv.s:351    .text:00000000000001ec .L0 
     /tmp/ccCvb6Lv.s:355    .text:00000000000001f0 .L0 
     /tmp/ccCvb6Lv.s:359    .text:00000000000001f8 .L0 
     /tmp/ccCvb6Lv.s:360    .text:00000000000001f8 .L0 
     /tmp/ccCvb6Lv.s:364    .text:0000000000000208 .L0 
     /tmp/ccCvb6Lv.s:365    .text:0000000000000208 .L0 
     /tmp/ccCvb6Lv.s:371    .text:000000000000021c .L0 
     /tmp/ccCvb6Lv.s:372    .text:000000000000021c .L0 
     /tmp/ccCvb6Lv.s:377    .text:000000000000022c .L0 
     /tmp/ccCvb6Lv.s:378    .text:000000000000022c .L0 
     /tmp/ccCvb6Lv.s:386    .text:0000000000000234 .L0 
     /tmp/ccCvb6Lv.s:387    .text:0000000000000234 .L0 
     /tmp/ccCvb6Lv.s:391    .text:0000000000000244 .L0 
     /tmp/ccCvb6Lv.s:392    .text:0000000000000248 .L0 
     /tmp/ccCvb6Lv.s:394    .text:000000000000024c .L0 
GAS LISTING /tmp/ccCvb6Lv.s 			page 17


     /tmp/ccCvb6Lv.s:395    .text:000000000000024c .L0 
     /tmp/ccCvb6Lv.s:397    .text:0000000000000250 .L0 
     /tmp/ccCvb6Lv.s:400    .text:0000000000000254 .L0 
     /tmp/ccCvb6Lv.s:402    .text:0000000000000258 .L0 
     /tmp/ccCvb6Lv.s:419    .text:0000000000000258 _Z8testJOINv
     /tmp/ccCvb6Lv.s:422    .text:0000000000000258 .L0 
     /tmp/ccCvb6Lv.s:423    .text:0000000000000258 .L0 
     /tmp/ccCvb6Lv.s:424    .text:000000000000025c .L0 
     /tmp/ccCvb6Lv.s:428    .text:0000000000000268 .L0 
     /tmp/ccCvb6Lv.s:429    .text:0000000000000268 .L0 
     /tmp/ccCvb6Lv.s:430    .text:0000000000000268 .L0 
     /tmp/ccCvb6Lv.s:432    .text:000000000000026c .L0 
     /tmp/ccCvb6Lv.s:434    .text:000000000000026c .L0 
     /tmp/ccCvb6Lv.s:435    .text:000000000000026c .L0 
     /tmp/ccCvb6Lv.s:442    .text:000000000000028c .L0 
     /tmp/ccCvb6Lv.s:443    .text:000000000000028c .L0 
     /tmp/ccCvb6Lv.s:447    .text:000000000000029c .L0 
     /tmp/ccCvb6Lv.s:448    .text:000000000000029c .L0 
     /tmp/ccCvb6Lv.s:454    .text:00000000000002b8 .L0 
     /tmp/ccCvb6Lv.s:455    .text:00000000000002b8 .L0 
     /tmp/ccCvb6Lv.s:459    .text:00000000000002c8 .L0 
     /tmp/ccCvb6Lv.s:460    .text:00000000000002c8 .L0 
     /tmp/ccCvb6Lv.s:466    .text:00000000000002e4 .L0 
     /tmp/ccCvb6Lv.s:467    .text:00000000000002e4 .L0 
     /tmp/ccCvb6Lv.s:471    .text:00000000000002f4 .L0 
     /tmp/ccCvb6Lv.s:472    .text:00000000000002f4 .L0 
     /tmp/ccCvb6Lv.s:476    .text:0000000000000300 .L0 
     /tmp/ccCvb6Lv.s:477    .text:0000000000000300 .L0 
     /tmp/ccCvb6Lv.s:481    .text:000000000000030c .L0 
     /tmp/ccCvb6Lv.s:482    .text:0000000000000310 .L0 
     /tmp/ccCvb6Lv.s:484    .text:0000000000000314 .L0 
     /tmp/ccCvb6Lv.s:485    .text:0000000000000314 .L0 
     /tmp/ccCvb6Lv.s:487    .text:0000000000000318 .L0 
     /tmp/ccCvb6Lv.s:489    .text:000000000000031c .L0 
     /tmp/ccCvb6Lv.s:491    .text:0000000000000320 .L0 
     /tmp/ccCvb6Lv.s:497    .text:0000000000000320 _Z8userMainv
     /tmp/ccCvb6Lv.s:501    .text:0000000000000320 .L0 
     /tmp/ccCvb6Lv.s:502    .text:0000000000000320 .L0 
     /tmp/ccCvb6Lv.s:503    .text:0000000000000324 .L0 
     /tmp/ccCvb6Lv.s:506    .text:000000000000032c .L0 
     /tmp/ccCvb6Lv.s:507    .text:000000000000032c .L0 
     /tmp/ccCvb6Lv.s:509    .text:0000000000000330 .L0 
     /tmp/ccCvb6Lv.s:511    .text:0000000000000330 .L0 
     /tmp/ccCvb6Lv.s:512    .text:0000000000000330 .L0 
     /tmp/ccCvb6Lv.s:515    .text:0000000000000338 .L0 
     /tmp/ccCvb6Lv.s:516    .text:000000000000033c .L0 
     /tmp/ccCvb6Lv.s:518    .text:0000000000000340 .L0 
     /tmp/ccCvb6Lv.s:519    .text:0000000000000340 .L0 
     /tmp/ccCvb6Lv.s:521    .text:0000000000000344 .L0 
     /tmp/ccCvb6Lv.s:523    .text:0000000000000348 .L0 
     /tmp/ccCvb6Lv.s:532    .bss:0000000000000000 threads
     /tmp/ccCvb6Lv.s:529    .bss:0000000000000000 .LANCHOR0
     /tmp/ccCvb6Lv.s:542    .text:0000000000000348 .L0 
     /tmp/ccCvb6Lv.s:8      .rodata.str1.8:0000000000000000 .LC0
     /tmp/ccCvb6Lv.s:92     .text:000000000000005c .L0 
     /tmp/ccCvb6Lv.s:11     .rodata.str1.8:0000000000000008 .LC1
     /tmp/ccCvb6Lv.s:104    .text:0000000000000080 .L0 
GAS LISTING /tmp/ccCvb6Lv.s 			page 18


     /tmp/ccCvb6Lv.s:14     .rodata.str1.8:0000000000000010 .LC2
     /tmp/ccCvb6Lv.s:119    .text:0000000000000098 .L0 
     /tmp/ccCvb6Lv.s:141    .rodata.str1.8:0000000000000020 .LC3
     /tmp/ccCvb6Lv.s:221    .text:000000000000011c .L0 
     /tmp/ccCvb6Lv.s:233    .text:0000000000000140 .L0 
     /tmp/ccCvb6Lv.s:144    .rodata.str1.8:0000000000000028 .LC4
     /tmp/ccCvb6Lv.s:248    .text:0000000000000158 .L0 
     /tmp/ccCvb6Lv.s:296    .text:0000000000000194 .L0 
     /tmp/ccCvb6Lv.s:270    .rodata.str1.8:0000000000000038 .LC5
     /tmp/ccCvb6Lv.s:360    .text:00000000000001f8 .L0 
     /tmp/ccCvb6Lv.s:372    .text:000000000000021c .L0 
     /tmp/ccCvb6Lv.s:273    .rodata.str1.8:0000000000000040 .LC6
     /tmp/ccCvb6Lv.s:387    .text:0000000000000234 .L0 
     /tmp/ccCvb6Lv.s:435    .text:000000000000026c .L0 
     /tmp/ccCvb6Lv.s:437    .text:0000000000000278 .L0 
     /tmp/ccCvb6Lv.s:407    .rodata.str1.8:0000000000000050 .LC7
     /tmp/ccCvb6Lv.s:443    .text:000000000000028c .L0 
     /tmp/ccCvb6Lv.s:449    .text:00000000000002a0 .L0 
     /tmp/ccCvb6Lv.s:450    .text:00000000000002a8 .L0 
     /tmp/ccCvb6Lv.s:410    .rodata.str1.8:0000000000000068 .LC8
     /tmp/ccCvb6Lv.s:455    .text:00000000000002b8 .L0 
     /tmp/ccCvb6Lv.s:461    .text:00000000000002cc .L0 
     /tmp/ccCvb6Lv.s:462    .text:00000000000002d4 .L0 
     /tmp/ccCvb6Lv.s:413    .rodata.str1.8:0000000000000080 .LC9
     /tmp/ccCvb6Lv.s:467    .text:00000000000002e4 .L0 
     /tmp/ccCvb6Lv.s:85     .text:0000000000000054 .L7
     /tmp/ccCvb6Lv.s:77     .text:0000000000000050 .L3
     /tmp/ccCvb6Lv.s:45     .text:0000000000000020 .L4
     /tmp/ccCvb6Lv.s:66     .text:000000000000003c .L5
     /tmp/ccCvb6Lv.s:113    .text:0000000000000098 .L2
     /tmp/ccCvb6Lv.s:57     .text:000000000000002c .L6
     /tmp/ccCvb6Lv.s:214    .text:0000000000000114 .L15
     /tmp/ccCvb6Lv.s:206    .text:0000000000000110 .L11
     /tmp/ccCvb6Lv.s:174    .text:00000000000000e0 .L12
     /tmp/ccCvb6Lv.s:195    .text:00000000000000fc .L13
     /tmp/ccCvb6Lv.s:242    .text:0000000000000158 .L10
     /tmp/ccCvb6Lv.s:186    .text:00000000000000ec .L14
     /tmp/ccCvb6Lv.s:353    .text:00000000000001f0 .L23
     /tmp/ccCvb6Lv.s:346    .text:00000000000001ec .L19
     /tmp/ccCvb6Lv.s:321    .text:00000000000001c4 .L20
     /tmp/ccCvb6Lv.s:335    .text:00000000000001d8 .L21
     /tmp/ccCvb6Lv.s:381    .text:0000000000000234 .L18
     /tmp/ccCvb6Lv.s:327    .text:00000000000001c8 .L22
     /tmp/ccCvb6Lv.s:1845   .debug_abbrev:0000000000000000 .Ldebug_abbrev0
     /tmp/ccCvb6Lv.s:3040   .debug_str:000000000000060a .LASF119
     /tmp/ccCvb6Lv.s:2946   .debug_str:0000000000000361 .LASF120
     /tmp/ccCvb6Lv.s:2878   .debug_str:000000000000017b .LASF121
     /tmp/ccCvb6Lv.s:5      .text:0000000000000000 .Ltext0
     /tmp/ccCvb6Lv.s:535    .text:0000000000000348 .Letext0
     /tmp/ccCvb6Lv.s:2824   .debug_line:0000000000000000 .Ldebug_line0
     /tmp/ccCvb6Lv.s:2964   .debug_str:00000000000003d4 .LASF0
     /tmp/ccCvb6Lv.s:2980   .debug_str:0000000000000450 .LASF1
     /tmp/ccCvb6Lv.s:2950   .debug_str:000000000000037c .LASF2
     /tmp/ccCvb6Lv.s:2916   .debug_str:00000000000002b7 .LASF4
     /tmp/ccCvb6Lv.s:3022   .debug_str:0000000000000580 .LASF3
     /tmp/ccCvb6Lv.s:2850   .debug_str:00000000000000ba .LASF5
     /tmp/ccCvb6Lv.s:2986   .debug_str:0000000000000488 .LASF6
GAS LISTING /tmp/ccCvb6Lv.s 			page 19


     /tmp/ccCvb6Lv.s:2962   .debug_str:00000000000003c1 .LASF7
     /tmp/ccCvb6Lv.s:3056   .debug_str:000000000000074a .LASF8
     /tmp/ccCvb6Lv.s:2906   .debug_str:0000000000000245 .LASF9
     /tmp/ccCvb6Lv.s:3000   .debug_str:00000000000004f8 .LASF10
     /tmp/ccCvb6Lv.s:3046   .debug_str:00000000000006f5 .LASF11
     /tmp/ccCvb6Lv.s:2854   .debug_str:00000000000000d1 .LASF12
     /tmp/ccCvb6Lv.s:2836   .debug_str:0000000000000035 .LASF13
     /tmp/ccCvb6Lv.s:2864   .debug_str:000000000000010b .LASF14
     /tmp/ccCvb6Lv.s:3016   .debug_str:000000000000055a .LASF15
     /tmp/ccCvb6Lv.s:2874   .debug_str:000000000000014d .LASF16
     /tmp/ccCvb6Lv.s:2990   .debug_str:00000000000004a6 .LASF17
     /tmp/ccCvb6Lv.s:2826   .debug_str:0000000000000000 .LASF18
     /tmp/ccCvb6Lv.s:2840   .debug_str:000000000000004f .LASF122
     /tmp/ccCvb6Lv.s:2884   .debug_str:00000000000001ad .LASF19
     /tmp/ccCvb6Lv.s:3008   .debug_str:0000000000000534 .LASF21
     /tmp/ccCvb6Lv.s:2988   .debug_str:000000000000049b .LASF25
     /tmp/ccCvb6Lv.s:2904   .debug_str:000000000000022e .LASF27
     /tmp/ccCvb6Lv.s:2952   .debug_str:000000000000038a .LASF20
     /tmp/ccCvb6Lv.s:2912   .debug_str:0000000000000278 .LASF22
     /tmp/ccCvb6Lv.s:2920   .debug_str:00000000000002c9 .LASF23
     /tmp/ccCvb6Lv.s:3052   .debug_str:0000000000000714 .LASF24
     /tmp/ccCvb6Lv.s:2838   .debug_str:0000000000000045 .LASF26
     /tmp/ccCvb6Lv.s:2932   .debug_str:00000000000002fe .LASF28
     /tmp/ccCvb6Lv.s:2948   .debug_str:0000000000000372 .LASF29
     /tmp/ccCvb6Lv.s:3028   .debug_str:00000000000005b1 .LASF30
     /tmp/ccCvb6Lv.s:3012   .debug_str:0000000000000548 .LASF123
     /tmp/ccCvb6Lv.s:3042   .debug_str:00000000000006ce .LASF31
     /tmp/ccCvb6Lv.s:2890   .debug_str:00000000000001c5 .LASF32
     /tmp/ccCvb6Lv.s:2926   .debug_str:00000000000002e2 .LASF33
     /tmp/ccCvb6Lv.s:2970   .debug_str:0000000000000409 .LASF34
     /tmp/ccCvb6Lv.s:3038   .debug_str:0000000000000604 .LASF35
     /tmp/ccCvb6Lv.s:2940   .debug_str:000000000000032b .LASF36
     /tmp/ccCvb6Lv.s:3048   .debug_str:0000000000000704 .LASF37
     /tmp/ccCvb6Lv.s:2984   .debug_str:0000000000000475 .LASF38
     /tmp/ccCvb6Lv.s:2978   .debug_str:000000000000044a .LASF39
     /tmp/ccCvb6Lv.s:2852   .debug_str:00000000000000c1 .LASF40
     /tmp/ccCvb6Lv.s:2930   .debug_str:00000000000002f1 .LASF41
     /tmp/ccCvb6Lv.s:3058   .debug_str:000000000000075a .LASF42
     /tmp/ccCvb6Lv.s:3018   .debug_str:0000000000000570 .LASF70
     /tmp/ccCvb6Lv.s:2954   .debug_str:0000000000000396 .LASF72
     /tmp/ccCvb6Lv.s:3064   .debug_str:0000000000000798 .LASF124
     /tmp/ccCvb6Lv.s:3024   .debug_str:0000000000000592 .LASF43
     /tmp/ccCvb6Lv.s:2856   .debug_str:00000000000000e1 .LASF44
     /tmp/ccCvb6Lv.s:3062   .debug_str:000000000000078b .LASF45
     /tmp/ccCvb6Lv.s:3036   .debug_str:00000000000005f8 .LASF46
     /tmp/ccCvb6Lv.s:3030   .debug_str:00000000000005c6 .LASF49
     /tmp/ccCvb6Lv.s:3014   .debug_str:000000000000054d .LASF51
     /tmp/ccCvb6Lv.s:2902   .debug_str:000000000000021e .LASF47
     /tmp/ccCvb6Lv.s:2908   .debug_str:0000000000000253 .LASF48
     /tmp/ccCvb6Lv.s:3034   .debug_str:00000000000005e5 .LASF50
     /tmp/ccCvb6Lv.s:2858   .debug_str:00000000000000f0 .LASF52
     /tmp/ccCvb6Lv.s:3072   .debug_str:00000000000007df .LASF53
     /tmp/ccCvb6Lv.s:3006   .debug_str:0000000000000520 .LASF54
     /tmp/ccCvb6Lv.s:2924   .debug_str:00000000000002dd .LASF55
     /tmp/ccCvb6Lv.s:2866   .debug_str:0000000000000117 .LASF56
     /tmp/ccCvb6Lv.s:2928   .debug_str:00000000000002e9 .LASF57
     /tmp/ccCvb6Lv.s:2922   .debug_str:00000000000002d4 .LASF58
GAS LISTING /tmp/ccCvb6Lv.s 			page 20


     /tmp/ccCvb6Lv.s:2828   .debug_str:0000000000000009 .LASF59
     /tmp/ccCvb6Lv.s:2936   .debug_str:000000000000031e .LASF60
     /tmp/ccCvb6Lv.s:3032   .debug_str:00000000000005d6 .LASF61
     /tmp/ccCvb6Lv.s:2942   .debug_str:000000000000033b .LASF62
     /tmp/ccCvb6Lv.s:2910   .debug_str:000000000000025f .LASF64
     /tmp/ccCvb6Lv.s:3060   .debug_str:000000000000077d .LASF66
     /tmp/ccCvb6Lv.s:2914   .debug_str:000000000000028f .LASF68
     /tmp/ccCvb6Lv.s:2968   .debug_str:0000000000000400 .LASF63
     /tmp/ccCvb6Lv.s:2892   .debug_str:00000000000001d8 .LASF65
     /tmp/ccCvb6Lv.s:3080   .debug_str:000000000000081f .LASF67
     /tmp/ccCvb6Lv.s:2994   .debug_str:00000000000004b8 .LASF69
     /tmp/ccCvb6Lv.s:3020   .debug_str:0000000000000576 .LASF71
     /tmp/ccCvb6Lv.s:2848   .debug_str:00000000000000a6 .LASF73
     /tmp/ccCvb6Lv.s:2870   .debug_str:0000000000000137 .LASF74
     /tmp/ccCvb6Lv.s:2976   .debug_str:0000000000000437 .LASF75
     /tmp/ccCvb6Lv.s:2934   .debug_str:0000000000000313 .LASF125
     /tmp/ccCvb6Lv.s:2918   .debug_str:00000000000002be .LASF76
     /tmp/ccCvb6Lv.s:2938   .debug_str:0000000000000326 .LASF126
     /tmp/ccCvb6Lv.s:2956   .debug_str:00000000000003a6 .LASF77
     /tmp/ccCvb6Lv.s:3078   .debug_str:000000000000081a .LASF78
     /tmp/ccCvb6Lv.s:2894   .debug_str:00000000000001eb .LASF79
     /tmp/ccCvb6Lv.s:3076   .debug_str:0000000000000806 .LASF80
     /tmp/ccCvb6Lv.s:2944   .debug_str:0000000000000349 .LASF81
     /tmp/ccCvb6Lv.s:2886   .debug_str:00000000000001b2 .LASF127
     /tmp/ccCvb6Lv.s:2876   .debug_str:0000000000000163 .LASF128
     /tmp/ccCvb6Lv.s:2958   .debug_str:00000000000003ab .LASF82
     /tmp/ccCvb6Lv.s:2868   .debug_str:000000000000011d .LASF83
     /tmp/ccCvb6Lv.s:2974   .debug_str:000000000000042d .LASF84
     /tmp/ccCvb6Lv.s:2966   .debug_str:00000000000003e1 .LASF85
     /tmp/ccCvb6Lv.s:2880   .debug_str:0000000000000199 .LASF86
     /tmp/ccCvb6Lv.s:2842   .debug_str:0000000000000057 .LASF87
     /tmp/ccCvb6Lv.s:2998   .debug_str:00000000000004ec .LASF88
     /tmp/ccCvb6Lv.s:3044   .debug_str:00000000000006d6 .LASF89
     /tmp/ccCvb6Lv.s:3050   .debug_str:000000000000070c .LASF90
     /tmp/ccCvb6Lv.s:3026   .debug_str:0000000000000597 .LASF91
     /tmp/ccCvb6Lv.s:2992   .debug_str:00000000000004ab .LASF92
     /tmp/ccCvb6Lv.s:3054   .debug_str:000000000000072a .LASF93
     /tmp/ccCvb6Lv.s:3010   .debug_str:0000000000000540 .LASF94
     /tmp/ccCvb6Lv.s:3066   .debug_str:00000000000007a0 .LASF95
     /tmp/ccCvb6Lv.s:3074   .debug_str:00000000000007f5 .LASF96
     /tmp/ccCvb6Lv.s:2844   .debug_str:0000000000000072 .LASF97
     /tmp/ccCvb6Lv.s:2860   .debug_str:00000000000000fd .LASF98
     /tmp/ccCvb6Lv.s:2900   .debug_str:0000000000000216 .LASF99
     /tmp/ccCvb6Lv.s:2888   .debug_str:00000000000001bc .LASF100
     /tmp/ccCvb6Lv.s:3004   .debug_str:0000000000000513 .LASF101
     /tmp/ccCvb6Lv.s:498    .text:0000000000000320 .LFB39
     /tmp/ccCvb6Lv.s:524    .text:0000000000000348 .LFE39
     /tmp/ccCvb6Lv.s:513    .text:0000000000000338 .LVL55
     /tmp/ccCvb6Lv.s:2862   .debug_str:0000000000000102 .LASF102
     /tmp/ccCvb6Lv.s:2846   .debug_str:0000000000000099 .LASF103
     /tmp/ccCvb6Lv.s:420    .text:0000000000000258 .LFB38
     /tmp/ccCvb6Lv.s:492    .text:0000000000000320 .LFE38
     /tmp/ccCvb6Lv.s:440    .text:000000000000028c .LVL47
     /tmp/ccCvb6Lv.s:445    .text:000000000000029c .LVL48
     /tmp/ccCvb6Lv.s:452    .text:00000000000002b8 .LVL49
     /tmp/ccCvb6Lv.s:457    .text:00000000000002c8 .LVL50
     /tmp/ccCvb6Lv.s:464    .text:00000000000002e4 .LVL51
GAS LISTING /tmp/ccCvb6Lv.s 			page 21


     /tmp/ccCvb6Lv.s:469    .text:00000000000002f4 .LVL52
     /tmp/ccCvb6Lv.s:474    .text:0000000000000300 .LVL53
     /tmp/ccCvb6Lv.s:479    .text:000000000000030c .LVL54
     /tmp/ccCvb6Lv.s:2834   .debug_str:0000000000000029 .LASF104
     /tmp/ccCvb6Lv.s:2982   .debug_str:0000000000000463 .LASF105
     /tmp/ccCvb6Lv.s:151    .text:00000000000000c0 .LFB37
     /tmp/ccCvb6Lv.s:266    .text:0000000000000180 .LFE37
     /tmp/ccCvb6Lv.s:2644   .debug_loc:0000000000000000 .LLST4
     /tmp/ccCvb6Lv.s:169    .text:00000000000000d8 .LBB10
     /tmp/ccCvb6Lv.s:245    .text:0000000000000158 .LBE10
     /tmp/ccCvb6Lv.s:2658   .debug_loc:0000000000000039 .LLST5
     /tmp/ccCvb6Lv.s:2804   .debug_ranges:0000000000000000 .Ldebug_ranges0
     /tmp/ccCvb6Lv.s:2670   .debug_loc:0000000000000070 .LLST6
     /tmp/ccCvb6Lv.s:192    .text:00000000000000f8 .LBB14
     /tmp/ccCvb6Lv.s:207    .text:0000000000000110 .LBE14
     /tmp/ccCvb6Lv.s:2682   .debug_loc:00000000000000a7 .LLST7
     /tmp/ccCvb6Lv.s:181    .text:00000000000000e8 .LVL18
     /tmp/ccCvb6Lv.s:223    .text:000000000000012c .LVL24
     /tmp/ccCvb6Lv.s:230    .text:0000000000000140 .LVL25
     /tmp/ccCvb6Lv.s:235    .text:0000000000000150 .LVL26
     /tmp/ccCvb6Lv.s:250    .text:0000000000000168 .LVL28
     /tmp/ccCvb6Lv.s:2832   .debug_str:000000000000001d .LASF106
     /tmp/ccCvb6Lv.s:3068   .debug_str:00000000000007ba .LASF107
     /tmp/ccCvb6Lv.s:280    .text:0000000000000180 .LFB36
     /tmp/ccCvb6Lv.s:403    .text:0000000000000258 .LFE36
     /tmp/ccCvb6Lv.s:2693   .debug_loc:00000000000000dd .LLST8
     /tmp/ccCvb6Lv.s:316    .text:00000000000001bc .LBB18
     /tmp/ccCvb6Lv.s:384    .text:0000000000000234 .LBE18
     /tmp/ccCvb6Lv.s:2707   .debug_loc:0000000000000116 .LLST9
     /tmp/ccCvb6Lv.s:2719   .debug_loc:000000000000014d .LLST10
     /tmp/ccCvb6Lv.s:332    .text:00000000000001d4 .LBB21
     /tmp/ccCvb6Lv.s:347    .text:00000000000001ec .LBE21
     /tmp/ccCvb6Lv.s:2731   .debug_loc:0000000000000184 .LLST11
     /tmp/ccCvb6Lv.s:362    .text:0000000000000208 .LVL41
     /tmp/ccCvb6Lv.s:369    .text:000000000000021c .LVL42
     /tmp/ccCvb6Lv.s:374    .text:000000000000022c .LVL43
     /tmp/ccCvb6Lv.s:300    .text:00000000000001a8 .LVL32
     /tmp/ccCvb6Lv.s:305    .text:00000000000001b4 .LVL33
     /tmp/ccCvb6Lv.s:389    .text:0000000000000244 .LVL45
     /tmp/ccCvb6Lv.s:2830   .debug_str:0000000000000011 .LASF108
     /tmp/ccCvb6Lv.s:2972   .debug_str:000000000000041b .LASF109
     /tmp/ccCvb6Lv.s:21     .text:0000000000000000 .LFB35
     /tmp/ccCvb6Lv.s:137    .text:00000000000000c0 .LFE35
     /tmp/ccCvb6Lv.s:2742   .debug_loc:00000000000001ba .LLST0
     /tmp/ccCvb6Lv.s:40     .text:0000000000000018 .LBB2
     /tmp/ccCvb6Lv.s:116    .text:0000000000000098 .LBE2
     /tmp/ccCvb6Lv.s:2756   .debug_loc:00000000000001f3 .LLST1
     /tmp/ccCvb6Lv.s:2768   .debug_loc:000000000000022a .LLST2
     /tmp/ccCvb6Lv.s:63     .text:0000000000000038 .LBB6
     /tmp/ccCvb6Lv.s:78     .text:0000000000000050 .LBE6
     /tmp/ccCvb6Lv.s:2780   .debug_loc:0000000000000261 .LLST3
     /tmp/ccCvb6Lv.s:52     .text:0000000000000028 .LVL3
     /tmp/ccCvb6Lv.s:94     .text:000000000000006c .LVL9
     /tmp/ccCvb6Lv.s:101    .text:0000000000000080 .LVL10
     /tmp/ccCvb6Lv.s:106    .text:0000000000000090 .LVL11
     /tmp/ccCvb6Lv.s:121    .text:00000000000000a8 .LVL13
     /tmp/ccCvb6Lv.s:2996   .debug_str:00000000000004cb .LASF110
GAS LISTING /tmp/ccCvb6Lv.s 			page 22


     /tmp/ccCvb6Lv.s:2882   .debug_str:000000000000019f .LASF112
     /tmp/ccCvb6Lv.s:3070   .debug_str:00000000000007cc .LASF111
     /tmp/ccCvb6Lv.s:3002   .debug_str:0000000000000507 .LASF113
     /tmp/ccCvb6Lv.s:2872   .debug_str:0000000000000140 .LASF114
     /tmp/ccCvb6Lv.s:2896   .debug_str:00000000000001f1 .LASF115
     /tmp/ccCvb6Lv.s:2898   .debug_str:0000000000000206 .LASF116
     /tmp/ccCvb6Lv.s:2960   .debug_str:00000000000003b2 .LASF117
     /tmp/ccCvb6Lv.s:3082   .debug_str:0000000000000827 .LASF118
     /tmp/ccCvb6Lv.s:154    .text:00000000000000c0 .LVL15
     /tmp/ccCvb6Lv.s:173    .text:00000000000000e0 .LVL17
     /tmp/ccCvb6Lv.s:168    .text:00000000000000d8 .LVL16
     /tmp/ccCvb6Lv.s:261    .text:0000000000000178 .LVL29
     /tmp/ccCvb6Lv.s:213    .text:0000000000000114 .LVL23
     /tmp/ccCvb6Lv.s:241    .text:0000000000000158 .LVL27
     /tmp/ccCvb6Lv.s:196    .text:00000000000000fc .LVL20
     /tmp/ccCvb6Lv.s:205    .text:0000000000000110 .LVL22
     /tmp/ccCvb6Lv.s:283    .text:0000000000000180 .LVL30
     /tmp/ccCvb6Lv.s:298    .text:00000000000001a0 .LVL31
     /tmp/ccCvb6Lv.s:314    .text:00000000000001bc .LVL34
     /tmp/ccCvb6Lv.s:320    .text:00000000000001c4 .LVL35
     /tmp/ccCvb6Lv.s:398    .text:0000000000000250 .LVL46
     /tmp/ccCvb6Lv.s:352    .text:00000000000001f0 .LVL40
     /tmp/ccCvb6Lv.s:380    .text:0000000000000234 .LVL44
     /tmp/ccCvb6Lv.s:326    .text:00000000000001c8 .LVL36
     /tmp/ccCvb6Lv.s:336    .text:00000000000001d8 .LVL37
     /tmp/ccCvb6Lv.s:345    .text:00000000000001ec .LVL39
     /tmp/ccCvb6Lv.s:25     .text:0000000000000000 .LVL0
     /tmp/ccCvb6Lv.s:44     .text:0000000000000020 .LVL2
     /tmp/ccCvb6Lv.s:39     .text:0000000000000018 .LVL1
     /tmp/ccCvb6Lv.s:132    .text:00000000000000b8 .LVL14
     /tmp/ccCvb6Lv.s:84     .text:0000000000000054 .LVL8
     /tmp/ccCvb6Lv.s:112    .text:0000000000000098 .LVL12
     /tmp/ccCvb6Lv.s:67     .text:000000000000003c .LVL5
     /tmp/ccCvb6Lv.s:76     .text:0000000000000050 .LVL7
     /tmp/ccCvb6Lv.s:543    .debug_info:0000000000000000 .Ldebug_info0
     /tmp/ccCvb6Lv.s:47     .text:0000000000000020 .LBB4
     /tmp/ccCvb6Lv.s:80     .text:0000000000000050 .LBE4
     /tmp/ccCvb6Lv.s:108    .text:0000000000000090 .LBB8
     /tmp/ccCvb6Lv.s:114    .text:0000000000000098 .LBE8
     /tmp/ccCvb6Lv.s:176    .text:00000000000000e0 .LBB12
     /tmp/ccCvb6Lv.s:209    .text:0000000000000110 .LBE12
     /tmp/ccCvb6Lv.s:237    .text:0000000000000150 .LBB16
     /tmp/ccCvb6Lv.s:243    .text:0000000000000158 .LBE16
     /tmp/ccCvb6Lv.s:323    .text:00000000000001c4 .LBB20
     /tmp/ccCvb6Lv.s:348    .text:00000000000001ec .LBE20
     /tmp/ccCvb6Lv.s:376    .text:000000000000022c .LBB22
     /tmp/ccCvb6Lv.s:382    .text:0000000000000234 .LBE22

UNDEFINED SYMBOLS
_Z15thread_dispatchv
_Z11printStringPKc
_Z8printIntiii
_Z4joinP3TCB
_Z13thread_createPP3TCBPFvPvES2_
